	.file	"test.c"
	.section	.gnu.lto_.jmpfuncs.d6efdbd8e1497e68,"",@progbits
	.string	"x\234cb`b\300\006\272\031\031\030d\2004;\003P\00133P\021S\004c&#H\212\005\312f\204*ea`e\004\211U3\374j\230\321 \220\311\310$\307\3008\267a\206C&#3X\001\210,\0031\230\300\372X\030 l\220\372\016\220z\326dFdu\310\252\330)6\231\021\207\311\034L\2140\245`\243\331\344\030x F\263CL\201\313p\3101\bCd8\3012\250\372\270\344\030\304!\262\334\004\3641C\303\215\207\001\312`\341\"E\220\201K5EAA5''\215\213\201\315\315\307? \230\2019Q\233\201\325\023\304\002"
	.ascii	"w\322>\233"
	.text
	.section	.gnu.lto_.inline.d6efdbd8e1497e68,"",@progbits
	.string	"x\234cb`b\300\006\214\031!4;\303\033\206\313\f\313X\031\031\230\0260N8\022\304\300\266@\036\254\203\351\006\343m\206\347 \361\r\214G\266E\301\305\231\0170\bmbbdb"
	.string	"\031\300\b\"\230\370\016\365p@\3449@\nx\200z&\3701\260\36212\260"
	.string	"\351\t~\023\374X\030\230\231\030\301.\201\031\303\252 {\022h\004\223\330\201\035LpA6~\006\270\026f\036\006\220\006\b\005\347\262\223\247\215\203A\3730H\233\370\245\026&\006\316\033f\020\037r\003="
	.string	"t\033/X\t*\217\225\017h\006\320H,\f\006"
	.ascii	"c\333*\224"
	.text
	.section	.gnu.lto_.pureconst.d6efdbd8e1497e68,"",@progbits
	.string	"x\234cb`b\340g\200"
	.string	"v\006)&)f\t\026\006V\tv\t\016I"
	.string	"\007\006"
	.ascii	"\315"
	.text
	.section	.gnu.lto_compute_integer_op.d6efdbd8e1497e68,"",@progbits
	.ascii	"x\234\235\231yl\025E\034\307g\366m)\242\bJ"
	.string	"\"\206p\237\212\260v\367\235\025\201rJ\271\217V\016\005Y\013\232\006\375K\377\322?\330\007U\036\n\362\004\242\210\027\020\r%F\305\033/(\036\241DEQ\bbc\300\033\242(\r\022\020\201\347wfv\226\316<\224\221M\3667\235\357w>\277\337lvgv_j\021\213\350\307`\234\337w$\244\027%\204\266\"\324\312\357\"$\333\332\242\266\370#&\376\330\336\332\266b\313v\020\022\264)\251+%\301e%\2242\235P\262\320\212\331%t\341L\312\322\245{\222\365A\260\362\340\307M\313\333?\264nQ>8[(\320Z\212\302m(\251\241d\006:\264;o,[\235\211 \203\r\365\301\025\331u\301\351B!VKc\026iw\216\253\020\\\353\363r\333\032&7\006u\r\205\302P^\256\203a\271\275*v\265!\326\244b]\f\261f\025\353i\210\235P\261~\206\330\252\355\n6\300\020[W\037\\\"o"
	.ascii	"0\327\020{B\255\2262\304\236U\261A\206\3306\025\033~q\327Vi\210"
	.ascii	"\355S\253M6\275o*6\375\342&9\307\020+\250\325\346\033b\217?\230"
	.ascii	"k\223\317\346\202Ba!\347\3562\343\032\016\034\t\326S\360\331"
	.ascii	"\243\205B;N\336cz\357\324\307\371>\323\233\240bYj\310\035P\271"
	.ascii	"\234)\247\255\272\025\246\\A"
	.string	"\345\0363\3456\324/Rv\276\247\351y\267>6\272nU\303\361CKi\360} wX\333\"\033\316?\376|Gx\013\233\367\343\326?(\357 J>w\301\024\3772\327M\3779\327cEs}\351\177\3165\337\260\2779\267\276e\222\022\213l6\237\255\372N\331z\261\340\247\027\004}\372-\355\211\270\0171\274\372\023?f[\254\223V\026\331m\364D\200<Y\021=H\300\366\230b\247\024l\237)vZ\301\2761\305\316*\330\267\246X~XK\354\240)\266R\301~0\305V+\330\317\246\330\032\005;l\212\255U\260\337L\261\247\024\354\250)\366\214\202\375i\212mV\260\223\246\330\253\nv\332\024{]\301\002\313\020{S\301\352L\261-\n\2263\305\336Q\260e\246\330{\n\2267\305\266*\330jS\354\013\005[c\212}\251`O\231b{\024l\335\005\261\227\255\206\203\205\302\262\215\371!wt\3066x"
	.ascii	"\333`\027\264\337\241\355\212\366\007\264\335\320>\217\266;\301"
	.ascii	"\236\332\003\235\215|\257D\247\027:\233\320\351\315:}X\350\013"
	.ascii	"\345\005(\375X\347\032\026\256\205\362\"\224\376\254s\035\013"
	.ascii	"\003\240\274\fe \3538,\\\017\345\025(e\254\343\262\340Ay\rJ\034"
	.ascii	"\355\033h\023\020I\2229)\026\322\220\337\202\234a\235r\026n\200"
	.ascii	"\3626\224A\254s#\013\203\241\274\013e\b\332\367\321\016e)*\230"
	.ascii	"3\214\205\341\220\267A\036\301:#Y\030\005e;\224\321h?D{\023\003"
	.ascii	"\3060\247\222\205\261\220?\206<\216u\306\2630\001\312\016(\023"
	.ascii	"Yg\022\013\223\241\354\2042\205u\246\2620\r\312'P\252X\247\232"
	.ascii	"\205\233\241|\006e:\353\314`a&\224\317\241\314b\235[X\270\025"
	.ascii	"\312n(\263Yg\016\013\267A\371\n\312\\\326\361\321\331\213N\r"
	.ascii	"\332\375h\347\241mB\213\243\204\324\341\355\333\275\345k\315"
	.ascii	"\247?\361\370\013\217\207y\374\225\307#<\376\301c3\217\307x<"
	.ascii	"\316\343\t\036\377\342\361o\036\317\360X\3401k\261\270\230\307"
	.ascii	"\007x\\\302\343R\036\037\346q9\217+x|\324b\363\253\341\277:\253"
	.ascii	"\020\361\253\264\232b\213(\215}F>\330"
	.string	"\262\345\221.>]e\225\204\357c\366\244\362\007\225y\215\227Kk\237\264\346\205\326\311]\235\245\367S\350\265\242\241\227k'\255_\244\025\013\255\372\310:,-[\026\213\254_\245U\032Z\207\"\353\210N\345\256\224\326\037\322j-kEV\263\264.\221\265\"\353\230>\303\\\007i\035/\232|d\235\320\255\306\310\372K\267\016E\326\337E\265\256\222\326\231\242Z\221U(\252\025Y\354IPkE\326b\335\312u\224\326\003\272U\037YKt\2531\262\226\026\325\212\254\207\213ju\222\326\362\242Z\221\265\242\250Vd=\332\322bG5\215\221e;\b{`w~\335\324V\214\273\223v\023\017\037\303\027\375\036\223jw\030<c\245Tz\210\007\230\211\213s\321\270\236|h\017>t\347\321R)\367\022\217\255\226\2647\f\215\357\303S\364\026\374\027m\244\334W<\333\032\337\017\206\306_\303S\364\023\374\346K\245|\255X"
	.ascii	"\032\337\037\206\306_\307S\364\027|\376r)\017\020\253D\343\007"
	.ascii	"\302\340\374\322Hrx\212\201\341\365G\374\365b)i|\031\f\255\276"
	.ascii	"\313S\224\205\363\277R\312\236Xo\352\035\210\213\225\3063<\024"
	.ascii	"eH`4<Qj\361)*\365$,\255X\212\327K\206\027\333A"
	.string	"\312i\261L\265\311f`h|9O\221\t/6\342o\020kY\343\007\301\320\370\033y\212A!\337Q\312\203\305\202W/v\210X\352\332\305\016\305hx\341\305\376nI\275\002\226Vl\030\257W\021\026\353$\345\341b\237\320&;\002\206\306\217\344)F\204|W)\217\022\233\211:\331\321b\033\341\031\226G\031n\302hx\341d\267F\372\030XZ\261J^oLX\254\233\224\307\212=H\233\3548\030\032?\236\247\030\027\362\267Ky\202\330\2504~\"\f\215\237\304SL\024\374\311s\233\303d\261\235i\t\246\300\320\022L\3459\246\350\373\3004\261\347i|\025\f\215\257\346)\252B>\332\007n\026\033\243\306O\207\241\3613x\212\351!\037\355\0033\305\356\251\361\263`h\374-<\305,}\035\337*\266X\215\237\rC\343\347\360\024\263C\276\235\224o\223_\016\n?\027\206\306\373<\305\\\301\177\335\024k\371\315"
	.string	"W\350k\236\211\306\327\210/\r-\313<\030\374\013\203*\017\250\030\013[\276\bl\222\337\305^\004\213v\256y2\272\326\316O\222\265\331 h_KK\356'\247\202\034\373\253\364n\376\305\303r\226\206\257\021\345J\272"
	.ascii	"S\227BW9\261F\362\321\317\331x\213\201]\317}\266W\323\022\366"
	.ascii	"\351\264\233d\017\236\016\327\260<\252\360\023\257\256\224\375"
	.ascii	"\347\240\364\336\371\367\334\353\324\020\333w\235\262\330\002"
	.ascii	"\307\265}\317\361l?\356\304m?\341$l?\351$m?\345\244l?\355\244"
	.ascii	"m?\343dl\277\334)o\345\273e\216[\206\306u\\\027\215\347\270\036"
	.ascii	"\232\270\343\306\321$\0347\201&\351\270I4)\307M\241I;n\032M\306"
	.ascii	"q3h\312\035\027Y\2742\307C\026\317u<d\361P\034Y\274\270\343\305"
	.ascii	"\355\005\216\227\240\013\354Z\307K\262\220\242\265m+\253FM\035"
	.ascii	"VU9i\3424\307K+\275\f\033Rn\371\256\345{\226\037\267\374\204"
	.ascii	"\345'-?e\371i\313\317X~y\f\023\306\351\342\364p\306q&p&q\246"
	.ascii	"p\246qfpb\234\207q\036\306y\030\347\305\377\001!\306\250\f"
	.text
	.section	.gnu.lto_compute_float_op.d6efdbd8e1497e68,"",@progbits
	.ascii	"x\234\235\231{pT\325\035\307\317\271\233K\030\372\020\353\264"
	.ascii	"\323\372 \2744\210r\315\356\275\373\210\202\200\3620\202 \220"
	.ascii	"\310CQnc\037\031\246u\246:\366\217N\307\233\207\022\004\353*"
	.ascii	"\264\005E\215\3168lG[i\2555\352t\210\332\022\230\026\032\307"
	.ascii	"\241\301\241NR\035j\034j\rUK\214\300\366{\316\271\347\356\356"
	.ascii	"\317\2539\355\316\334\337\311\357\373\373~~\367\354\336\335\337"
	.ascii	"\335\235X\314b\3641\007\307\356o0V\303\031\343\343\030\267\362"
	.ascii	"\207\030"
	.string	"k\035o\361*\365GB\375\361\362\370*+\261\265\227\261`\202\335Q\315\202/\332\234\013\235qv\227\225\250\262\371]k\271h\227\231\312\036\017\202\374\340\223\243G\370\356\355=;\202\216\236b\221\327\264p\234z\002g\315\234\255\341-\234\317\223\2135\276r/\212\r\372\n\301\331m]\301\251b1\321\302\023\026\233X\342\002\265Z\023c\301\275\273Vt\266\367\004#\305b\265<\341W\rOx\230p\347\031rG\t7\305\220;A\270ZC\356$\341f\031r\247\t\347\032r\333\036\251\344\352\r\271\235\204\233k\310=F\270\205\206\334\363\204[j\310\365\023n\225!w\bo\320V\375\006\005\267\316\220\033 \347\363\r\271\"\341\276\373\177\356\3636C\356\347\373\266M\310\337\023\264\016\027\213gI\360N3\260\347p\357KO\360\340-\2648\203O\275D\177lz\r\311{\264\203\033\202\364C\277\305\024\354'\340\203\246\340"
	.string	"\001w\232\202\364\363\333e\n\366\025\332*&\342n\036?\022\205\275\343\201\2367\357\3315#\350\332\036\264\r\026\213\030\275U\026{\3723\200\270Gx-\3737\275\212k\371D\253\276\2268\355\257\306\356\362\031\033~\366\3637|\364S\033\356\376\3377\274w\323O\316\276\267k\253nb[\354E\363\327\267\362\216\263\177\354\263\373\374M>\025\261\0371|\026\003\373~Z\033\22460\316b\007\2156"
	.string	"tx\3379\245\017\034\300>S\360\337\004|\335\024\374\220\200\1775\005\377C\3007L\301\021\002\376\315\024\034%\340\200)x\212\200o\231\202g\bx\314\024\314\367V\202C\246\340\203\004\374\247)\270\235\200\303\246\340\317\b\370\241)\270\203\200#\246\340C\004<e\n\356\"``\031\202\217\022\260\303\024\334C\300NS\3607\004\334j\n\376\226\200yS\360w\004\334n\nv\023p\207)\370\"\001w\215\t>c\365`&\376\371\271\216Wj\276}>\206\346"
	.ascii	"\206\346\005\f\243v\022\222\277#\251\301\372$\326\311B\234\202"
	.ascii	"d\267\034\253H\246!\371\005\222\351\"\271P\204\213\240<\005\245"
	.ascii	"V$3D\270\030\312/\241\314\024\311%\"\\\n\345\031(\263D\342\210"
	.ascii	"p\031\224_C\251\023IR\204\024\224g\241\270\"\361DHCy\016JF$Y"
	.ascii	"\021rP\236\207R/\222\313E\270\002\312\013Pf\213d\216\bWBy\t\312"
	.ascii	"\\\221\314\023a>\224\337"
	.string	"C\271\n\353^\254WCd\013\220\274\214d\241H\026\t\333b\021\256\201\374*\344\006\254\177\304z\255(/\021\225\245\"\\\007\271\027\3622\221,\027\341z(\007\240\254\020\311J\021VA\371\023\224F\2214\211p\003\224\203PV\213d\215\bk\241\374\005\312:\221\334(\302MP^\203\262^$7\213p\013\224\327\241l\020\211\217\3440\222f\254o`\275\025\353Q\254x\330\254\0037\315\311\345w@\237\277-\3431\031\337\221\361]\031\217\313\370\236\214\357\313xB\306\017d\374H\306\2232~,\343'2\236\226\261(c\253%b\273\214w\313\270I\306\3152n\221\361>\031\357\267\304\376\232\345\017\321FD\374Pm\342\370\324W'\016\262W^\350>\336\223\360\371\003\226\035\336\273\317e;\003\361>\305\367\rD\341\330\277Q\327\373\303zg\220\307}?\b\037]\274\344\0359~\304\322\356\267K\356\361%w \276"
	.ascii	"\207\356\316\357k\357\261\330\316=e\336B\344}\247\344\375z|\337"
	.ascii	"\375\221\367\335X\357`\231w(\362\036\037\263o\347m\332\373^\311"
	.ascii	";9\336[\210\274\357\307z\363\345\373\215\274'\306|\035\206\""
	.ascii	"\357\007c\366\355\374\201\366~\024\353\355*\337o\344=\031\353"
	.ascii	"\335S\276\337\310\373q\254\267b\277\221\367\223Xo_\371~o\327"
	.ascii	"\336\323\261\336\362\353V\210\274\305X\357p\371~#\257\370\324"
	.ascii	"\204\336\031\361\327m(\362\266\307z;\313\367{\247\366\336\035"
	.ascii	"\353-\277\026\205\310\273)\326\273\243|\277\221ws\254\267\374"
	.ascii	"\272\rE\336-\261\336B\371~\177\250\275\367\305z\313\257q!\362"
	.ascii	"\336\037\353\355\016\275\342\321\304\023lk/\023\363\344@\367"
	.ascii	"\350\021\256\310\357\360\0325\004D\303\266\177%\264:\031\005"
	.ascii	"y\216\006\255LQ\243E\210\355\235\221o\252\264N\221\326\003\303"
	.ascii	"\325Z\236\246\246\005i:\035\005\302_([LW|\337\004-_\244&\b\341"
	.ascii	"kQ \374\f\331\242V\361{\276\240\345\213\325T!\374L\024\b\177"
	.ascii	"\211l1S\361\371/k\371R5i\b?\013\005\302;\262\305\254\360\371"
	.ascii	"G\374ej\372\020\276\016\005\302'e\213\272\360\371\237\245\345"
	.ascii	"\224\232H\204wQ \274'[\270\341\363\377\212\226\323jJ\021>\203"
	.ascii	"\202\3447GRV\266\310\204\317\377\034-\347\324\344\"|=\n\344\374"
	.ascii	"\227\313\026\365\341\363\217\370+\3244#\374l\024\b?G\266\230"
	.ascii	"\035\362_\323\362\225j\302\021~.\n\204\237'[\314\r\371s\265<"
	.ascii	"_M\275\312w\360Uj\274\311\016\367F\035\256\206\033\265\260\303"
	.ascii	"yZ^\240"
	.string	"\346\0331/\224\376\005j_\355g,\255/B\211\354l\261\334\334\242\260o\215\226\257Q\263\260rg\rj\350\311\016\217D\035\256\205\033\265\360d\245\227a\tJ\344dK\345\371\226\204'\373\246\226\257S\003\222\274\214\313P \374r\331b\231\342\217\214\346\264~\275\232\232\244\301\n\024H\203\225\262\307\212p\003\343\264\274JMR\3027\242@\370&\331\242\221\316\221\033\324t%\374j\024\b\277F\266X\035\362\321\034Y\253&.\341\327\241@\370\033e\213u!\037\315\221\233\324\024&\374z\024\b\177\263l\261\236\316\201[\3647\273\n~\003\n\204\367e\213\r\212\357\326\027@\215\\T\225>2Z\247\375\315\352\213 \351r+\n\361\337\346\252*\336q\n\206_\337\032\252X\376\220\2705\264\035\03099\030\335\032\316\177\230=\324\032\004\023[\270\375#6\212\256\370\253\372{\362\216\"~*U\207w\026`\205h\013\027"
	.ascii	"\253|sO\322[\335\317\376\360\217V\267\3148\251\3643\253\211\333"
	.ascii	"\342\313\356k\254upd\232\262\350G#~kwT\213\177\377T\337\361\255"
	.ascii	"\333\357p\232\231\355'\035\267\256j\243\343&m?\345\270)\333w"
	.ascii	"\035\327\265}\317q=\333O;n\332\3663\216\233\261\375\254\343f"
	.ascii	"m?\347\2709\333\257w\334\372q~\262\316\361\352\260$\035/\211"
	.ascii	"%\345x),\256\343\271X<\307\363\260\244\035/\215%\343x\031,Y\307"
	.ascii	"\313b\3119^\016K\275\343\241K\252\316I\243K*\351\244\321%\225"
	.ascii	"r\322\350\222r\235\264\213m\245=\276\261\252\305I\247E\310\360"
	.ascii	"\226/54.\\9\277\261a\371\262UN:+\304\234\345'-?e\371\256\345"
	.ascii	"{\226\237\266\374\214\345g-\037z}\002[\304\221\304\221\302\341"
	.ascii	"\342\360p\244qdpdq\344p\300\227\202/\005_\n\276\224\373_\" \204"
	.ascii	"A"
	.text
	.section	.gnu.lto_exec_threads.d6efdbd8e1497e68,"",@progbits
	.ascii	"x\234eR=hSQ\024\376\316\275\357\347&m\022\203n\n\226\202\203"
	.ascii	"\320v\262\240S\273\273\246\240\233!-\351\033JA\263h\207\3364"
	.ascii	"\201d\020\215%CF\253\224\"\n\202\235\234|-\212\016\255\222I\005"
	.ascii	"\20788\025\212\243T\344yn\356{M\323\036x\357\274\373\235\363"
	.ascii	"\235s\276s\237\200\300i\273\303\317M\t\\bO)\220h}\006\252J\220"
	.ascii	"c?\244\375\330Q\216\220\017?\002:\355\326}\350Q\227|\203\223"
	.ascii	"g\375\216\362\205\367\366\203\211\253\257\212\343\212\310\340"
	.ascii	" \254\n\351\270\236\257h\3656\231\216r\034\033Z\257\3676\237"
	.ascii	"\375\024O\332aG\327\303(\242\313\001"
	.string	"\361tiB\211p\213\002\242\331\276\023jx\\\303\r[\341\337\306#\322O\333z\255\027E\314\224\002\027\006L\355X\352\354Y\252n\205\377\0325\322\353\272\372;\212r\0019\002\027\007\3141Kt\206\211\257E\310m\366\336\325w\257\236'\024\351\005\215\363\250\326{\264D\360\021\220\253\370\345\245\370Hi\216mrl\204\021?\023'fc\237cP\345\343\003\233\213:O5V\244->'h\251\277\250\002\277y\327\005\022\354\344\034I\360\005\310}\254\035\326\266\332\313EzI.\312\344\227\211\363\030=\250\275\241\004T\214\367\301C\231@\3512_\257\201\216\216\241\221\025<\340\021'\361J\263\335\017(e\307\350W\034\330\0274\302\t\313\001Vp\244\233\372\\@\351R\234\305u\314\326F`\233\250\200FM\237Z\263\026=\236IZe\270\246\311r\222\312s\344\200\177\020\371\t\357\177U\335$\215\312\344%m\277\3032"
	.ascii	"\321\221\\A\376\361\r\3155\3130\321l\034u\366\272\363&\340a\343"
	.ascii	"\272\331\316\217o\317\273\")\230\233\304\304\t]\342\204(\367"
	.ascii	"\214\244L)N`\236)\236\005_V.\026\263\335>\026\223\347B\247\304"
	.ascii	"\370\330\234\241a-bH\013\237\262.\313\313{V\20622\366\261{\020"
	.ascii	"\217j'\274\206m\335\344\312,\020]T{\235+\311\220\326\n\274\363"
	.ascii	"\272o\206\364+\013\367*S%\244\226\026*\213\313\363S\3237\274"
	.ascii	"\312\342\335\205\342<\005\377\001\2325\307\223"
	.text
	.section	.gnu.lto_compute_avx.d6efdbd8e1497e68,"",@progbits
	.string	"x\234cb`b@\007\222@\034\004\304\234@\314\310\314\300\3104\341\034\003C#\007\023##\210\301\300\310P\317\304X\037\311\bV\273\236\351\300\203\377\377\327\3558\265\340$#\023\310(V\206\226\206\206\t\n\f\f\311`\005!@\022\244+\224\221\tD3_d`Ld\\\312\310\n\267,\204\221\021$\001\322\312^\222Z\\\242\227\314"
	.string	""
	.ascii	"(\032\031\b"
	.text
	.section	.gnu.lto_calculate_FLOPS.d6efdbd8e1497e68,"",@progbits
	.ascii	"x\234\215RMHTQ\024>\347\276\371\3639:3\366G.R\204\201\250\260"
	.ascii	"\026\341.p\33160(Z\304\364t\206\033cJ\363V\266\360\216Oa\212"
	.ascii	"\250I\f\247d\310 \031E\304((pa\217va%\266\323Z\f\201\020\bA\213"
	.ascii	"@\334L\347\3367Wm4\362\301\2343\367\234\357|\347\273\347\\\006"
	.ascii	"\fj\277\343\364{\341\003\350 \217\006 \313\177\006\310\206\030"
	.ascii	"\242\374\003\b\203\f\007\257\242\204\372\333\340\271\020\243"
	.ascii	"\345\251\305\025|4\346\026\304\260[\251`\013G\2425\021,\204+"
	.ascii	"\310\021;\225c\241\277\373\310Z7\357N,=n\022\223cb\250\\\251"
	.ascii	"P\245\301 \272S)<\317\242\373\225\212\337\027s#\256\330\254T"
	.ascii	"\202\252\356\350\201\352\304\250[\\z\020\023\223\367uK\037\203"
	.ascii	"\346\203\210\025y\367\331\322\303\223\273\304\372\031\304\377"
	.ascii	"\333t\236\271\204\376\270:\374\345\354\021\003{\021\002\3001"
	.ascii	"\020\224&$M\2354\2464\365\322\204\245i\220\246\021\0228\213m"
	.ascii	"\020\241\203?J\2079:\304\310O\221\227\323\207a\322\324\232\300"
	.ascii	"\022\235\0238\243\354\254\262s\na\251%u\221\225\233\273\214L"
	.ascii	"zc\031F\312\253#f\002\347\321O\351;\260%r\"\3121h\241\302\253"
	.ascii	"K\204db\200c\235fW`\216&\200\254_[\017\356\251\257\267\320{L"
	.ascii	"^D\\\342\030\266\320\250\342Rhpl\360\252\277\356S\375\257\356"
	.ascii	"35\335?\301\320\332\346\333_U\332\024\006N\303)\216\215\036\360"
	.ascii	"\006\352\241K\330\313c\032\024\324\240R\r\310\271\353,0\215\n"
	.ascii	"\021\033aU\374\236\363\035u\274\216RRU@\214m|3\252\344\371\026"
	.ascii	"\2356\025yD+\300]\n\362)\r\252\327\240R\r\210\024\274\tkT\230"
	.ascii	"\330\b\253\3429ga\373\222\rJDX\221\376t\006t\2701%'J\261i\347"
	.ascii	"\335\3705\035\215PB1\024\235\233:\026m\206'4\347|\2016$\344\347"
	.ascii	"\216\377xEWRxE\361azq\373\302\261\tx\232\025r+;\373\211\366*"
	.ascii	"\321r\016\372}/\303\3365\306,\364\251$\261\310`A\210\013\034"
	.ascii	"\233N\300\231\242(tr<\004;\357\201dq<,\273\277\337\250.\301\233"
	.ascii	"\317yx-r\324\310\233\365\256\344LMr\005\262\345\255\270\026\341"
	.ascii	"}]\244\223\236\271|\212A\273'c\267[\340O\366\267w\234\363g\354"
	.ascii	"\304m\333\350\271\325m\332}v\"}\335\346\275=\201T2\335\327\237"
	.ascii	"1\343\335\255\255\361t:i\302\0370A!\351"
	.text
	.section	.gnu.lto_calculate_IOPS.d6efdbd8e1497e68,"",@progbits
	.ascii	"x\234\215SMHTQ\024>\347\276\231y\343s\324\231\251\214\\\230\b"
	.ascii	"R\030\b\201\264\213\\\266h\023\030\324*\306\347\017\0274E\337"
	.ascii	"\312\026^}JcDNb4\375H\266\b\023\021\303\026\225\021<\332\265"
	.ascii	"\250\301m\004\rm\022\205\250E\020I\274\316\275\357]\307F#/\314"
	.ascii	"9\363\276\363}\347\234w\316}\f\030\224\237#\364{\035\001h%\217"
	.ascii	"\006 \313\275\007\030\2153D\371\007\020F\030\216\\BI\2156\302"
	.ascii	"#!\246\213\023\376\032\336\232\361\362b\334\363}<\312\221\322"
	.ascii	"Z\b6\302E\344\210m\312\261\370\337u\244\326\313y\317\013\267"
	.ascii	"\323bnF\214\025}\237\224\006\203dI)\002\317\222{I\305\217\263"
	.ascii	"\331\tO\374\364}S\351j\367\245\023\323\336\313\251\233)1wC\227"
	.ascii	"\2140\250\333O\263\"\347\275*L\035\337\321l\224A\323\177\213"
	.ascii	".3\217\330\017\266\3067\316\324\032\330\207\020\003\2161S\232"
	.ascii	"\2704\025\322X\322TJ\223\220\246J\232j\310\340\"6B\r=\230IiR"
	.ascii	"\204,\021\222&\377\230\274\\\001\214Sc\r\031\234\247\347\f.("
	.ascii	"\273\250\354\222b\330jS\355d\345\372. \223\336(\300D\361\323"
	.ascii	"5+\203\313\030\245\360U\370%\262\"\3111n\243\342\2537\251\220"
	.ascii	"\201a\216\226\316\256\310\034+\001\244~\375\213\271K\237\260"
	.ascii	"1\270Q\001\"\316s\254\262\321\by=hp\254\016\324\033{\250\377"
	.ascii	"U}\241\254\372;\030\373\360b\353{\230\266\007c'\240\231cM@\354"
	.ascii	"@=yI{zX\223LM\232/#\271\223\356*\323\2548e#\256\302\257\273\237"
	.ascii	"Q\343\025\024\222]\305\304\314\346G#L\376\255^\207-\225<\251"
	.ascii	";\300R\362\254\273\272\335g\245\312c\205\342n\r'\264x\276\\<"
	.ascii	"\351\256$4\253J\351\023J\374\325\035\326p5E\024\366\304\335|"
	.ascii	"xN\2435=r\316\224av\273x\262\016\356\322\230syZ\220\220\307\273"
	.ascii	"\263\276BodJz\230\265C\223S\304W\330\333<}\333\032M\337\207{"
	.ascii	"\243Bn\252\264\263T\237jX\316&\0256^\200\335\253M\333\030QA\312"
	.ascii	"\"\301\274\020\2479\036\250\207\346Y\221o\343x\020Jw\204\312"
	.ascii	"s<$\313\277\331\f\027\023\314\246\025\236\211,\025\n\346\277"
	.ascii	"#\270P\026\\\203\321\342\357c\272\211\340\264S\237t\365\345\365"
	.ascii	"4\235\256!\247\305\206h\367@\313\251\223\321!'3\350\030]W:-\247"
	.ascii	"\337\311\364^vx_W\204\367\017\fYM\235\r\rM\275\275\335\026\374"
	.ascii	"\001\357+({"
	.text
	.section	.gnu.lto_main.d6efdbd8e1497e68,"",@progbits
	.ascii	"x\234\225\224_HSq\024\307\317\371\335\177s\3236\235sB\260\302"
	.ascii	"\327hB\205\bA\350\203\201$\031\271\240\350iM\263\013\032\221"
	.ascii	"\363\251\007\2576#\320@\305\300\212\310 +\211\212\n\0234h\376"
	.ascii	"\311\245\263\264\321[=\214\020\"\204\030\364\020\364\262\316"
	.ascii	"\357wwg\315\177xa\277s\356\371\235s~\237\357\271\367\216\001"
	.ascii	"\203\334\353,\375\372\025\200cd\321\006\310\372>\002t\332\030"
	.ascii	"\223R\0360\354\312p%\030\371\022\223\277\330\351N\033\233\001"
	.ascii	"\272\225Q3\263\024\246\3169y|\341\b\205U+\254!r\007\020:\230"
	.ascii	"$+\252\206\035g\220\037&\225\301}\303\350K\216<\234\226\372\007"
	.ascii	"\247\206\214H4\235\306=:\022\230\035!\204p\032u\304*a\230\215"
	.ascii	"*Zq\rU\024\017D\337\016\334,\\\030\3565\272\222\3514\225J\fJ"
	.ascii	"7)\305\334\322\337\211\301\234R\337\266\245\317Y\224\262{\373"
	.ascii	"\273\277\325\355f\330\212L\006\035e\205/*_4Z\300\006A\034\301"
	.ascii	"2p\220}D\326Iv\224l\021\337t\323\242\024s\317\303\275\022\356"
	.ascii	"y\271G\335\025\210\320@\366\002\247\240+@+\037\335)d\334J\037"
	.ascii	"\240k\242{\374\301\376 >\241\364f\224\357\300m\202\224\233\221"
	.ascii	"qX\265\324d\\\202k\251\305T\302\233\355f:\321\370\334\212\004"
	.ascii	"`\026\207LM\315Xt\005\376\030\327\r\227\216Z\bY\020\237\t\020"
	.ascii	"\336\\\264\0041\006\305N\2004\n\002X\235y5\035W\203\370T\020"
	.ascii	"\270\251\201\bO\274\353\211\315*\026\230\222\003f\333\032\254"
	.ascii	"'\366y=Xq\016\330K\013L\331\032\354\205 \360P\203\fX"
	.string	"<\266\"Y`j\016\230k\233\211\305\302\353\270Jr\270^[\\\352\326\\c\002\300K\rD\370\347L|1\242Y\\\032\215\222\207\257\336\310\242\332x\0370\006W\277J<A\024\315/g*HF\247\301\031 K\223g~\034\274*\017L\"\002x\017\263\337\247\306\023\314\352\352\021t\377|F\364rI\220\362H\"q2\221=\336+\022\331\177\2112\030\222\264\004\335\311{\363v+\317\221\005\260\207\250\023\277x\244TG\207\017\016\3375\206\252t\314\317\314\320\332)\360A\265\271\263\313\332\321\321i*L\2519\n\245\354\001.\363C\344`\256\214B\007\177v\221\344\343yG\246\317\332<\nC\304kf\271u\376\226\232\032\024\030\2564\305\376Z\233\312FbU\270\345\020b'G\263b\235\233\212u\373\240\306\224T\274\003\261\313;\022\3534\305\276\371\261\241Xe\003\261\232\370\333\370\004\235\311\270n\326\b\241\226\310"
	.ascii	"\035A\t\\\267\026nj\013\373CPP\033\2509Y\035\250\255?\336\340"
	.ascii	"\2578\240\234\277\344\2578(\326C%\345\355m\227\313\365\213\241"
	.ascii	"\226\366\306\246\362\266pc\213~\316\177\001\224\332\372\023\r"
	.ascii	" \005\367\201z\264\216\273\177\001O=r\303"
	.text
	.section	.gnu.lto_.symbol_nodes.d6efdbd8e1497e68,"",@progbits
	.ascii	"x\234M\314MN\002A\020\206\341\257\252l\252`\006\256\340\222\205"
	.ascii	"\327\361>5N\253\003\2548\201\013=\n\306\030M\344\n\032\266&n"
	.ascii	"\375\033\376f\006\232\336\274y\372\3534\203qIh\017\377\252\023"
	.ascii	"\346o\200\373\335\224\302\267\"8\370O\035\351\226\377\325\371"
	.ascii	"\300\tq\255.'\\\253\237%\206\037\245\375\027\033\365p\362\250"
	.ascii	"0\357\035\370\314T\232k\313\242 \2722\267\244\033\363~\322\265"
	.ascii	"\371 \351\326<K\252\314\363\243D\006\210\365\327\205H\037\361"
	.ascii	"\351\261\026\t9\342\373\232$\b\356\233\346X4\315\260\252>\317"
	.ascii	"E\273]\273]\273]3\304\331n\267\021\036\366\3365~\264]5\035bQ"
	.ascii	"\215\305\024\345l\334\350e\311b\001\345\353\222\261\005\372z"
	.ascii	"g\211"
	.text
	.section	.gnu.lto_.refs.d6efdbd8e1497e68,"",@progbits
	.string	"x\234%\302\201\t"
	.string	" "
	.string	"\303\260\256\342\364\t\377\177S\301\020\221\303\2277\022\247R\227\320\261\2234\345\002\b2"
	.ascii	"e"
	.text
	.section	.gnu.lto_.decls.d6efdbd8e1497e68,"",@progbits
	.string	"x\234\255Zkp\024E\036\357\236\335\354nH\bA\205KYZ\304+\275:\275\222p\034z\224\037$\326\235\236^Yj\251wu\347\227\271a3\t{nv\343\356,\242\367\201\016\t\030^!\004$Q\020s\"\n\276\b'\312\353\200\341\375\320\002\r\234\021\017u9\024\225\363\316\250\b*H\356\337==;\323\2633\373\3101U\3353\275\323\375\353\337\377\321\377~\314JHBm>\204\006\341\362]\217\320\275~\204B\b\241\233!\r\207\264\022\322s\2206@\332\b\t^\243\315\220\266B\332\006i;\244\035\220vA\332\ri/2.\332v?\244\203\220\372 \035\203\224\206t\022\322)H_C:\007\251\f#\364(\244%\220\226B\222h\177p_\205\221pQ\034\312\253\004R\005\244rHAH/@\275"
	.ascii	"\334_\206{/o\203y}\314\261\354\327~\2163\316\2063\036\322Z\216"
	.ascii	"\263\316\201\263\337\003\207\312T\311ua\342\254\307\206~(\316"
	.ascii	"$H>lp<Cu\207\r=\236\207\264\t\033z=\315\261|\034\357\034\327"
	.ascii	"\013\325\301QH\375b\227L\207\346\205\035e\363JC\032\005I\303"
	.ascii	"\026\257\231\360\274\031\033rRn[9\317V\270\377\005\3226l\310"
	.ascii	"q\030\322lxn\207\244C\332\216-\273\227s\333\264\301}>6\354@\373"
	.ascii	"\242\266\353\343z*\343u>B\331\366\243v\037\235\207\327\270\213"
	.ascii	"\310\355\244\215\333A\033\267O]\270\235\342:\013\330lIy\356C"
	.ascii	"\006\027\352\323;\240\274\214\373\306Nl\371\273\351\377]\234"
	.ascii	"\327.H\307\2215>\020\307\245}\354\346>N}\375$\327\037\265\275"
	.ascii	"\351\357\003\016[\226\2419\204\314 =\255\244\r7\257\275B\301"
	.ascii	"\223\312\320\037\260\202+JQ-{(/e\276\214\220\202W\342\262\254"
	.ascii	"f\255\254\331\245\250\223\300\325C\bn;\001\275p\004\335gBL\204"
	.ascii	"6\327\240g\t\351H\257<1\340#$\304\233T{\327W\360*|\r\312_OBW"
	.ascii	"c\250\374\002\276\024]\207VC\335\016B\376u\271 %\353\232\350"
	.ascii	"\203WJF=\n\376\022\276\016\271\\W\241\036Zu\321\254y\230\244"
	.ascii	"\2114\022u\260\356\273\241\3336\372\244\257 UU\031&!\223\b\316"
	.ascii	"\364\002\365\241\227^\\\n\304n\302n]\320\336\351{z\321\346\364"
	.ascii	"\231\f\362\013O7\177\232\356!/m\276\006\217dO\234\224e>\250\343"
	.ascii	"e\276Wm]\226\227Z\017\277\344\244$4\311\324\243k\277\231v&H\205"
	.ascii	"Y0\225\366\370\254\366\221\244g^\265\202\003T\372\333\034p\002"
	.ascii	"\243\034h65Q#)\370e\360\003\005\277\202\257\202\3745\310m\025"
	.ascii	"^\304\222`K\323\276\266*\364\007\263\212+\212\273\302\262F\306"
	.ascii	"\363\036\222P\324\365\326\320\340\227\243\271\345G\206q9\320"
	.ascii	"=&\3200\016\264q\b\206\335\344aX\207v\263\332mp\031\317Fw\243"
	.ascii	"\321\343\314\327[`@?d\217\t\202\277S\214\277\343\321\354\311"
	.ascii	"\307\"\037bu\025\374G_\036\345*x\263g\347\036\252\032g\"\004"
	.ascii	"8\302\266!\250J\367PUI\036\266[\213e[e\"\3708\302\216!\260\335"
	.ascii	"\351\301V\312\303v{\261l\177*\352A\301\273\207\300v\217\007["
	.ascii	"\177\036\266\273<\331f\rA\033\345,\230}\270\314\036\t\274\252"
	.ascii	"\355\265z\033\203\226\223\364@z\313\236\177\214l'z3\204\340\351"
	.ascii	"\334\243%\364{,\204\225\253\321\n\312\344\353_\267\371\230\213"
	.ascii	"K\250\201V\330\217\307\270v\304\352\300\365\023\264\2226[\321"
	.ascii	":\263\262\212\377\346\335\210\023<\200M\363\332H\352\037L\354"
	.ascii	"&\003\203\203#L~\215\256\374\316\232\374\024\374&\013\214\007"
	.ascii	"\207B\320\253\021'x\310\225\340\331\307\222d\0269\017+|\344\210"
	.ascii	"\0367\217\362\214\036\207]\242G\346\331_j\334m\301DB\004\273"
	.ascii	"\b\336I\276\261\f3\237\325\350\313)8k\325A\236\272\345v\326\215"
	.ascii	"\204\026;\033U\333\275\327\344\302\264E\310|2\263\0223\271\020"
	.ascii	"od\273\024\374N\266~z\323\372\372\003M\246~L\033>\355&\313\f"
	.ascii	"r\324i\304cC1\242W#N\362}W#v\315\035\202\021\217;\215\b\312r"
	.ascii	"X\355E7I;\310\331\332\333y\355\367\230\240\351\241\350?\355\324"
	.ascii	"\377\tW\321z\027\004{Izpp\214AX\202]\201+\247o\034\234N\016\205"
	.ascii	"\323I'\247O\262"
	.string	"9\365\244\365\301C\t\017u\373K=\325\375o\027ug\236yt\023\324\257\340\007\244lI\t\331Vkz\377\001\246\212S9%\345\003\315\2100\264\033\t\035r6sx''\30354\027\334\323\317\265\346\335\231\305\330i\302\216\364\321\203\347w\342\343\315=F$,Be\247E\225\261I\315\232V\334\347\n\276[\231\371\341\225\004X\237a\313\371\317\035.\243\340\240\260hee\263\002\305\n\226Z\017\203\231\025\276\315v+]\354%\2413\216~L\364\357]<\2737}\264\375\363b\325\302\372\227P\213\204M*\364\225?\363*S\366\211\004\316\213\212t\354\002\r5\025\270\232\366\256\252\340\026\311\271\232\316(\3549Ca\231\362f\241\234E\310\n[Y\235L*s\350\330a\204\005\222\335\b\\c\313%aG\247\3406\311\315S\327-:Y\322Nv\320%\305`\025!\033q\021F\321\263\214\"\331\b\354\263\336\302"
	.string	"\314Q\325\335\204\214\363<)\227\025/A\013\2637\334\303M\232\357f6\272\035\372\333\037c\330\352uK\227"
	.string	"\316;\222\350\262\005\240H\350\237\254\321R"
	.string	"0\232\032\033\350\364\023]g[p3h\312x\227\177\263\376\341\241\026L:+\271\006\276\317\240\272\005\230|\273\330\031\372w\207\346\361]\354>\026\346\232}\016\274\274\373\330Z\001\357\373C\241\216Y\225&Z{\321h\004\013p\347\005\270\245E\303\351\"\334\005\001nu!p\325\336\272\353\350\263\243m(\032M\324\\\247\200\266\247h4\207\346\026\013pG\212\206shn\211"
	.string	"w\274\020\270Zo\315=)\240\375\247h4Qs\313\004\264sE\24394\267\\\200\233\353/\026\316\241\271W;\273\330\bsL\n\2561\003\233\200U\210\206\214n\326\367\006G\310\320\027\315-\247\323\364\206\002\302\305\f\375\361\271]|\200\257\227\250<+2\230\205\216!\021\257k\356\0227q\274U\304N\024\2549\016\206]\321\f\354\346&\372\323o\330\003\340\032'Z\336"
	.ascii	"H\234\347\224^\254\327\333Y\257+\304\017\376\344\255\267\365"
	.ascii	"\235K\270\035\2662;l)\032O\324\302\346>\273\026v9\321\334\264"
	.ascii	" \240\tNO\364\276\316PG\2639\255\276Y4Z\217\210\326\337g\234"
	.ascii	"\215:NTr.>\217\236L_\273\221\020\220\350\200DI|\341w\256?\003"
	.ascii	"\216\365g@\\\177B\221\230\227q\260\034\260\026\242\323\251\r"
	.ascii	"\317\026\255sq,\247\237\350\357\177\026\177\325LV\325*\330GI"
	.ascii	"\266\2248\020+M\030\311B\344\252vq\013\242\177\331\267\240\202"
	.ascii	"\036\275+\030\3216\013\234x\302\362\336\025\257R\300\373\272"
	.ascii	"s^\205\355(_\3679\016\277\262O%\244\342\017\277\216H\356\207"
	.ascii	"_\326hY^\274\034U\302p9\327\267\300-\314\214B\2133&~\310\354"
	.ascii	"\216\257\320\316\316\031A\303\342\273\322( \260\252\304\351="
	.ascii	"l\267j\363\036(\013\261\323K\330~{\024x\325)\227\233\007\211"
	.ascii	"r\325\n\366y\352\360\202!\214\214O\257\335\314F\306\373ldl\314"
	.ascii	"\222\355\377\036\031;\213\227\2138\207\306\027\213\361\302\031"
	.ascii	"\244\255%\304\317\246\336(\036\323"
	.string	"1u\276u\330\230\211\031\\_!p=\236Cm\206\336gG;Z<Z\255\200v\304\216\226.\036\315\261\350\350_4\337\362\213\002\267\353O\177\221\276i\r\363\213S\314/z\002\027i\307.\241\347\003E\013$\330\016\3665\375g\264\016\242\267\372\371\234\362\212\023\321mN\321sD\312\017\0279?R\n\201\255'\263v\272\214\013\373\345\020\"\333W\036\221\315\374\312\006\353"
	.ascii	"\247\034b\307\256\202T#\317\313\276#T\360S\022\375\366\267\\"
	.ascii	"\242_\355zX\376\f\313\237e\371s,_\305\362\027X\376\022\313_a"
	.ascii	"y/\313\377\306\362u,\177\235\345;Y\276\233\345{Y\276\237\345"
	.ascii	"\007Y\376\026\313\373X\376\016\313\217\261\3748\313O\260\374"
	.ascii	"c\226\177\302\362\317X\376_\226\017H\305\177W\354\316\261J<\355"
	.ascii	"u\022\342\330\264g>N\353U\335\025\231\236\205\031F\301k\331g"
	.ascii	"\324\242\276<\347\343~V\362v\234o\263\270\333.X\3559\206\246"
	.ascii	"\313\305\017\270\226\236\031x`\3312\322\332B.\fN/\350(\305 p"
	.ascii	"N\312>\366\203\253\225\334\276\257\002\271\2169s\332\3343\232"
	.ascii	"N\233?\260\020\362\236\203g\3010t\371\366\263-,\030\021\2662"
	.ascii	"\372(+\030\371\035\301\310/\006#\2771I}kY\307oD\245 \032r;\247"
	.ascii	"\377\b[/\335o\337{\221\3140\256d\026\033`\374g\372\034\3075K"
	.ascii	"\317\350c\272\231\230\364U\376\323\232o\036\033\312|\237\276"
	.ascii	"n\023\353c6S\345wY\252\374\277\347\373\031AS\272\034\361\335"
	.ascii	"\270\334\2021\250\341\3351k\236!d-\301\305I\246\327\354g\222"
	.ascii	"\2653\311f\007/\272dK\213\226\254\326a9\257!\336\352\263\017"
	.ascii	"q\307\001\352\nA\022~~\2716\210\315\202\202\347\210\207\247\f"
	.ascii	"\242\323\347v\240\372\332\242#\037y\237q\323(\351\025\004\272"
	.ascii	"|\216\317%g\2442\261\220\315|S\320-4)\370I\027n\275\351\205\027"
	.ascii	"\276\035\273\332+<\005<Oz\025|\001KY\307\357Vg\313r\020\317:"
	.ascii	"\347\246\0073^F\332+\3747%\367\347\325\376l\233)x1\023;\207\315"
	.ascii	"V\210z\3711\372+\351y+\275eO{`!\321\273u\242C\030\032\303\377"
	.ascii	"\024\364A\246\007/\276\317[h\f\251O\337r\f\026\226\204\177\377"
	.ascii	">\315\316\n>\313\013\263\232\303\320\237\3714\312\306eK!\343"
	.ascii	"\222\377\213+\310\276\372\004=\377\305U\340\342\221\367\233w"
	.ascii	"\312\340\275\226\320^/x\367Z\"\366ZRj=\320\016G\270\314\323\001"
	.ascii	"\357i\272\327\032\303\303\320lB\232\t\231CV\341\346\267\257\360"
	.ascii	"\230\b\354T\307\017\243\347\201!O\252\343\207Y%\216\236\236]"
	.ascii	"\250\366\307Q\360.o\360q6ps\t\f\363\227\360m\211\370M\364Z\336"
	.ascii	"j\275\257\3705\360\006\237\373\032\330\234\207\263\364M?\224"
	.ascii	"y\201m\364y\375\337\305\370R\351\325n\223\325\256\230-\321\017"
	.ascii	"\317|\367:na_S6\263\031\346\265\320E\332\023e\261\247\013./\366"
	.ascii	"[sH}8\207\324\333riK\362\216zz\216v\363r\360\334\236\243\035"
	.ascii	"\r\311^\355v\344h\327\225\243\335\316\034\355\216\347\320\313"
	.ascii	".\237\370?&:\017\r\37463E\366\264\005\n\376\346\230o&\332\343"
	.ascii	"\234\211\350\312\3361ql\r\271L\366;C\266\311~\261\031\326]&\022"
	.ascii	"\376\347\002X=\215\304\006\274\204\336d\210\273}^\377.\340\333"
	.string	"\013\376\357\202\236U\2444\363\347\002[#!\310ry\016\210\323\025\272\252&\225L\324Db\341h\252N\255\231\034\321\2225M\332\224\204\252\324i\2174\251\311\261SP\005/\313\212\246%d-\360\233\273~W\375+\344\017OQ\022\001YNF\036U\203\262\254D#\r\261\240\246&\265\261aT\031\21676\2454U\256\217\306\025M\2167\2254)\t\245\361\022\363\347HLS\033\324\004\274(W\247\251a\331\300O\006\032UmJ\274nX,n\376Rf\266P\246N\033\021V\242\341TT\201\322mw\336}\317}\025V\371\016(\372\225DC\230fS\177$H\304\311\203\034\245\246\034Z\271\371\364\347x$V&\313\261x,\226\212Fe9#j\030rMe\257\340\227\370\303\262<J@Mju\2218`\006y\323@}<\321\250h\201\246\004\310V\357\277\355\216;o\r\001-\231>\210-\243\221\311\254e"
	.ascii	"\224\2434$\313i-\326e\223\226\260\nj\254nx\2460YI\252\025\264"
	.ascii	"\364p\"\002\322\322\342p\253\b\355l%h\310P&\247\352Y\3052\263"
	.ascii	"`\"&\225\251\006\304\b\366F\t?\230jb\345\362\314[\250:\214\026"
	.ascii	"\032\225\304\203j\242D\216\251\323\264\0229\t(~\271)\236\f\361"
	.ascii	"\027\311\200\f>\020\211\005\345\372HT\215\305\203\206D\343/\317"
	.ascii	"\366(\323\225\300Q\342\365\365\262V&\307\243u\3641\251\302s8"
	.ascii	"\225\220\303\361h\2521V!O\325\224\311Q\225\277*\225\223S\342"
	.ascii	"\t\r:f|\242\361\360\20320\241\367R\206t\343\004Y\013\362\312"
	.ascii	"\340\213MJ\335\317\215\333x\343\366\013\3436a\"\243\004\252\257"
	.ascii	"i\b\207k\246M\274Q\276q\302\365\t\265n\212\242]\037\215\304R"
	.ascii	"\323j&\214\2358\366\006\273y\353\324zj%\352\3362\307\276\241"
	.ascii	"Dn\214\327\251!9\025K%\325\272\361\301z\303\334\227\t\002k\221"
	.ascii	"F\225z[\230\322\214\324Qa\345\314s\210\276M6\251\341\220,\323"
	.ascii	"G\200\326\246\312I5<\022F\322#Ip\351\250\234\214\306c\r \027"
	.ascii	"\274\210\301\233\341\254\261\334\240j\264\001\264\213\252J\275"
	.ascii	",\227\324\307\233\324\330h\247W\202\214\214\266\226\320\342\321"
	.ascii	"aw\334\177\353\275\267\334\177\307\335w\335'\3257\215\244\270"
	.ascii	"\325\251X\022F\252ZW\r\314\313\355\2052\366\272.\236\002\375"
	.ascii	"\007\214[\026:T\003\364P\n\356T\365~E\213G\200QS*\241\3122()"
	.ascii	"\006\316\370?\247-\026\355"
	.text
	.section	.gnu.lto_.symtab.d6efdbd8e1497e68,"",@progbits
	.string	"compute_integer_op"
	.string	""
	.string	""
	.string	""
	.string	""
	.string	""
	.string	""
	.string	""
	.string	""
	.string	""
	.string	""
	.string	""
	.string	"\316"
	.string	""
	.string	""
	.string	"ITERATIONS"
	.string	""
	.string	"\004"
	.string	"\b"
	.string	""
	.string	""
	.string	""
	.string	""
	.string	""
	.string	""
	.string	"\246\001"
	.string	""
	.string	"compute_float_op"
	.string	""
	.string	""
	.string	""
	.string	""
	.string	""
	.string	""
	.string	""
	.string	""
	.string	""
	.string	""
	.string	""
	.string	"\311"
	.string	""
	.string	""
	.string	"exec_threads"
	.string	""
	.string	""
	.string	""
	.string	""
	.string	""
	.string	""
	.string	""
	.string	""
	.string	""
	.string	""
	.string	""
	.string	"\322"
	.string	""
	.string	""
	.string	"compute_avx"
	.string	""
	.string	""
	.string	""
	.string	""
	.string	""
	.string	""
	.string	""
	.string	""
	.string	""
	.string	""
	.string	""
	.string	"\334"
	.string	""
	.string	""
	.string	"calculate_FLOPS"
	.string	""
	.string	""
	.string	""
	.string	""
	.string	""
	.string	""
	.string	""
	.string	""
	.string	""
	.string	""
	.string	""
	.string	"\340"
	.string	""
	.string	""
	.string	"fp"
	.string	""
	.string	""
	.string	""
	.string	""
	.string	""
	.string	""
	.string	""
	.string	""
	.string	""
	.string	""
	.string	""
	.string	"\250\001"
	.string	""
	.string	"calculate_IOPS"
	.string	""
	.string	""
	.string	""
	.string	""
	.string	""
	.string	""
	.string	""
	.string	""
	.string	""
	.string	""
	.string	""
	.string	"\346"
	.string	""
	.string	""
	.string	"main"
	.string	""
	.string	""
	.string	""
	.string	""
	.string	""
	.string	""
	.string	""
	.string	""
	.string	""
	.string	""
	.string	""
	.string	"\352"
	.string	""
	.string	""
	.string	"pthread_join"
	.string	""
	.string	"\002"
	.string	""
	.string	""
	.string	""
	.string	""
	.string	""
	.string	""
	.string	""
	.string	""
	.string	"\363"
	.string	""
	.string	""
	.string	"pthread_create"
	.string	""
	.string	"\002"
	.string	""
	.string	""
	.string	""
	.string	""
	.string	""
	.string	""
	.string	""
	.string	""
	.string	"\373"
	.string	""
	.string	""
	.string	"clock_gettime"
	.string	""
	.string	"\002"
	.string	""
	.string	""
	.string	""
	.string	""
	.string	""
	.string	""
	.string	""
	.string	""
	.string	"z\001"
	.string	""
	.string	"fopen"
	.string	""
	.string	"\002"
	.string	""
	.string	""
	.string	""
	.string	""
	.string	""
	.string	""
	.string	""
	.string	""
	.string	"\226\001"
	.string	""
	.string	"strtol"
	.string	""
	.string	"\002"
	.string	""
	.string	""
	.string	""
	.string	""
	.string	""
	.string	""
	.string	""
	.string	""
	.string	"\233\001"
	.string	""
	.text
	.section	.gnu.lto_.opts,"",@progbits
	.string	"'-mavx2' '-mtune=generic' '-march=x86-64' '-O2' '-flto'"
	.text
	.p2align 4,,15
	.globl	compute_integer_op
	.type	compute_integer_op, @function
compute_integer_op:
.LFB1016:
	.cfi_startproc
	pushq	%r15
	.cfi_def_cfa_offset 16
	.cfi_offset 15, -16
	pushq	%r14
	.cfi_def_cfa_offset 24
	.cfi_offset 14, -24
	pushq	%r13
	.cfi_def_cfa_offset 32
	.cfi_offset 13, -32
	pushq	%r12
	.cfi_def_cfa_offset 40
	.cfi_offset 12, -40
	pushq	%rbp
	.cfi_def_cfa_offset 48
	.cfi_offset 6, -48
	pushq	%rbx
	.cfi_def_cfa_offset 56
	.cfi_offset 3, -56
	subq	$36, %rsp
	.cfi_def_cfa_offset 92
	movq	ITERATIONS(%rip), %rax
	movq	$0, 20(%rsp)
	movq	$100, 28(%rsp)
	movl	$1, -72(%rsp)
	movl	$3, -68(%rsp)
	movq	%rax, %rbx
	movl	$4, -64(%rsp)
	movl	$7, -60(%rsp)
	movl	$4, -56(%rsp)
	movl	$8, -52(%rsp)
	movl	$9, -48(%rsp)
	movl	$3, -44(%rsp)
	movl	$3, -40(%rsp)
	movl	$3, -36(%rsp)
	movl	$3, -32(%rsp)
	movl	$3, -28(%rsp)
	movl	$3, -24(%rsp)
	movl	$3, -20(%rsp)
	movl	$3, -16(%rsp)
	movl	$3, -12(%rsp)
	movl	$3, -8(%rsp)
	movl	$3, -4(%rsp)
	movl	$3, (%rsp)
	movl	$3, 4(%rsp)
	movl	$3, 8(%rsp)
	movl	$3, 12(%rsp)
	movl	$3, 16(%rsp)
	movq	%rax, -84(%rsp)
	movq	20(%rsp), %rax
	cmpq	%rax, %rbx
	jbe	.L3
	.p2align 4,,10
	.p2align 3
.L5:
	movl	-72(%rsp), %r15d
	movq	28(%rsp), %r13
	movl	-68(%rsp), %r14d
	movl	-64(%rsp), %r12d
	movl	-60(%rsp), %ebp
	movl	-56(%rsp), %eax
	movl	-52(%rsp), %ebx
	movl	-48(%rsp), %edi
	movl	-44(%rsp), %edx
	movl	-40(%rsp), %r11d
	addq	%r15, %r14
	movl	-36(%rsp), %r10d
	movl	-32(%rsp), %ecx
	addq	%r13, %r14
	movl	-28(%rsp), %esi
	movl	-24(%rsp), %r9d
	movl	-20(%rsp), %r8d
	addq	%r12, %r14
	movl	%edi, -116(%rsp)
	addq	%rbp, %r14
	movl	-16(%rsp), %edi
	movl	%edx, -112(%rsp)
	addq	%rbx, %r14
	movl	%ecx, -108(%rsp)
	movl	%esi, -104(%rsp)
	movl	%r8d, -100(%rsp)
	movl	-12(%rsp), %r8d
	addq	%r11, %r14
	movl	-8(%rsp), %edx
	addq	%r10, %r14
	movl	-4(%rsp), %ecx
	addq	%r9, %r14
	movl	%edi, -96(%rsp)
	movl	(%rsp), %edi
	movl	4(%rsp), %esi
	movl	%eax, -120(%rsp)
	movl	%edx, -92(%rsp)
	addq	%r8, %r14
	movl	-92(%rsp), %r8d
	movl	%ecx, -88(%rsp)
	movl	8(%rsp), %ecx
	movl	12(%rsp), %edx
	movl	16(%rsp), %eax
	addq	%r8, %r14
	movl	-88(%rsp), %r8d
	addq	%r8, %r14
	addq	%r14, %rdi
	addq	%rdi, %rsi
	addq	%rsi, %rcx
	movl	-112(%rsp), %esi
	imull	-116(%rsp), %esi
	addq	%rdx, %rcx
	xorl	%edx, %edx
	addq	%rax, %rcx
	movl	-100(%rsp), %eax
	divl	-96(%rsp)
	addq	%rsi, %rcx
	movl	-104(%rsp), %esi
	movl	-120(%rsp), %edx
	imull	-108(%rsp), %esi
	movl	%eax, %eax
	addq	%rsi, %rcx
	addq	%rcx, %rax
	subq	%rdx, %rax
	movq	%rax, 28(%rsp)
	movq	20(%rsp), %rax
	addq	$1, %rax
	movq	%rax, 20(%rsp)
	movq	20(%rsp), %rax
	cmpq	-84(%rsp), %rax
	jb	.L5
.L3:
	addq	$36, %rsp
	.cfi_def_cfa_offset 56
	xorl	%eax, %eax
	popq	%rbx
	.cfi_def_cfa_offset 48
	popq	%rbp
	.cfi_def_cfa_offset 40
	popq	%r12
	.cfi_def_cfa_offset 32
	popq	%r13
	.cfi_def_cfa_offset 24
	popq	%r14
	.cfi_def_cfa_offset 16
	popq	%r15
	.cfi_def_cfa_offset 8
	ret
	.cfi_endproc
.LFE1016:
	.size	compute_integer_op, .-compute_integer_op
	.p2align 4,,15
	.globl	compute_float_op
	.type	compute_float_op, @function
compute_float_op:
.LFB1017:
	.cfi_startproc
	fldz
	subq	$256, %rsp
	.cfi_def_cfa_offset 264
	vmovsd	.LC2(%rip), %xmm3
	fstpt	216(%rsp)
	vmovsd	.LC3(%rip), %xmm4
	flds	.LC1(%rip)
	fstpt	232(%rsp)
	vmovsd	%xmm3, 32(%rsp)
	vmovsd	%xmm4, 40(%rsp)
	vmovsd	.LC4(%rip), %xmm3
	vmovsd	.LC5(%rip), %xmm4
	vmovsd	%xmm3, 48(%rsp)
	vmovsd	%xmm4, 56(%rsp)
	vmovsd	.LC6(%rip), %xmm4
	vmovsd	%xmm3, 64(%rsp)
	vmovsd	%xmm4, 72(%rsp)
	vmovsd	.LC7(%rip), %xmm3
	vmovsd	.LC3(%rip), %xmm4
	vmovsd	%xmm3, 80(%rsp)
	vmovsd	%xmm4, 88(%rsp)
	vmovsd	.LC8(%rip), %xmm4
	vmovsd	%xmm3, 96(%rsp)
	vmovsd	%xmm4, 104(%rsp)
	vmovsd	.LC9(%rip), %xmm3
	vmovsd	.LC10(%rip), %xmm4
	vmovsd	%xmm3, 112(%rsp)
	vmovsd	%xmm4, 120(%rsp)
	vmovsd	.LC11(%rip), %xmm3
	vmovsd	.LC12(%rip), %xmm4
	vmovsd	%xmm3, 128(%rsp)
	vmovsd	%xmm4, 136(%rsp)
	vmovsd	.LC13(%rip), %xmm3
	vmovsd	.LC14(%rip), %xmm4
	vmovsd	%xmm3, 144(%rsp)
	vmovsd	%xmm4, 152(%rsp)
	vmovsd	.LC15(%rip), %xmm3
	vmovsd	.LC16(%rip), %xmm4
	fildq	ITERATIONS(%rip)
	vmovsd	%xmm3, 160(%rsp)
	vmovsd	%xmm4, 168(%rsp)
	vmovsd	.LC17(%rip), %xmm3
	vmovsd	.LC18(%rip), %xmm4
	vmovsd	%xmm3, 176(%rsp)
	vmovsd	.LC21(%rip), %xmm0
	vmovsd	%xmm4, 184(%rsp)
	vmovsd	.LC19(%rip), %xmm3
	vmovsd	.LC20(%rip), %xmm4
	vmovsd	%xmm3, 192(%rsp)
	vmovsd	%xmm4, 200(%rsp)
	vmovsd	%xmm0, 208(%rsp)
	fldt	216(%rsp)
	fxch	%st(1)
	fucomi	%st(1), %st
	fstp	%st(1)
	jbe	.L18
	fld1
	.p2align 4,,10
	.p2align 3
.L15:
	vmovsd	32(%rsp), %xmm5
	fldt	232(%rsp)
	vmovsd	40(%rsp), %xmm6
	vmovsd	48(%rsp), %xmm7
	vmovsd	56(%rsp), %xmm0
	vmovsd	%xmm5, -120(%rsp)
	vmovsd	64(%rsp), %xmm1
	vmovsd	%xmm6, -112(%rsp)
	vmovsd	72(%rsp), %xmm2
	vmovsd	%xmm7, -104(%rsp)
	vmovsd	80(%rsp), %xmm4
	vmovsd	%xmm0, -96(%rsp)
	vmovsd	88(%rsp), %xmm5
	vmovsd	96(%rsp), %xmm6
	vmovsd	104(%rsp), %xmm7
	vmovsd	112(%rsp), %xmm0
	vmovsd	%xmm1, -88(%rsp)
	vmovsd	%xmm2, -80(%rsp)
	vmovsd	%xmm4, -72(%rsp)
	vmovsd	%xmm5, -64(%rsp)
	vmovsd	120(%rsp), %xmm4
	vmovsd	%xmm6, -56(%rsp)
	vmovsd	128(%rsp), %xmm3
	vmovsd	%xmm7, -48(%rsp)
	vmovsd	136(%rsp), %xmm2
	vmovsd	%xmm0, -40(%rsp)
	vmulsd	%xmm3, %xmm4, %xmm3
	vmovsd	144(%rsp), %xmm1
	vmovsd	152(%rsp), %xmm0
	vmovsd	160(%rsp), %xmm5
	vmovsd	168(%rsp), %xmm6
	vmovsd	176(%rsp), %xmm7
	vmovsd	%xmm5, -32(%rsp)
	vdivsd	%xmm0, %xmm1, %xmm1
	vmovsd	%xmm6, -24(%rsp)
	vmovsd	%xmm7, -16(%rsp)
	faddl	-120(%rsp)
	faddl	-112(%rsp)
	faddl	-104(%rsp)
	vmulsd	%xmm2, %xmm3, %xmm2
	vmovsd	184(%rsp), %xmm5
	vmovsd	192(%rsp), %xmm6
	faddl	-96(%rsp)
	vmovsd	%xmm5, -8(%rsp)
	vmovsd	%xmm2, -120(%rsp)
	vmovsd	%xmm6, (%rsp)
	vmovsd	200(%rsp), %xmm7
	vmovsd	208(%rsp), %xmm5
	vmovsd	%xmm7, 8(%rsp)
	faddl	-88(%rsp)
	vmovsd	%xmm5, 16(%rsp)
	faddl	-80(%rsp)
	faddl	-72(%rsp)
	fsubl	-64(%rsp)
	faddl	-56(%rsp)
	faddl	-48(%rsp)
	faddl	-40(%rsp)
	faddl	-120(%rsp)
	vmovsd	%xmm1, -120(%rsp)
	faddl	-120(%rsp)
	faddl	-32(%rsp)
	faddl	-24(%rsp)
	faddl	-16(%rsp)
	faddl	-8(%rsp)
	faddl	(%rsp)
	faddl	8(%rsp)
	faddl	16(%rsp)
	fstpt	232(%rsp)
	fldt	216(%rsp)
	fadd	%st(1), %st
	fstpt	216(%rsp)
	fldt	216(%rsp)
	fxch	%st(2)
	fucomi	%st(2), %st
	fstp	%st(2)
	ja	.L15
	fstp	%st(0)
	fstp	%st(0)
	jmp	.L11
.L18:
	fstp	%st(0)
	.p2align 4,,10
	.p2align 3
.L11:
	xorl	%eax, %eax
	addq	$256, %rsp
	.cfi_def_cfa_offset 8
	ret
	.cfi_endproc
.LFE1017:
	.size	compute_float_op, .-compute_float_op
	.p2align 4,,15
	.globl	exec_threads
	.type	exec_threads, @function
exec_threads:
.LFB1018:
	.cfi_startproc
	testl	%esi, %esi
	jle	.L28
	pushq	%r14
	.cfi_def_cfa_offset 16
	.cfi_offset 14, -16
	leal	-1(%rsi), %r14d
	pushq	%r13
	.cfi_def_cfa_offset 24
	.cfi_offset 13, -24
	leaq	1(%r14), %r13
	pushq	%r12
	.cfi_def_cfa_offset 32
	.cfi_offset 12, -32
	movq	%rdi, %r12
	pushq	%rbp
	.cfi_def_cfa_offset 40
	.cfi_offset 6, -40
	pushq	%rbx
	.cfi_def_cfa_offset 48
	.cfi_offset 3, -48
	xorl	%ebx, %ebx
	subq	$64, %rsp
	.cfi_def_cfa_offset 112
	movq	%rsp, %rbp
	.p2align 4,,10
	.p2align 3
.L22:
	movq	%rbx, %rcx
	xorl	%esi, %esi
	movq	%rbp, %rdi
	movq	%r12, %rdx
	addq	$1, %rbx
	addq	$8, %rbp
	call	pthread_create
	cmpq	%r13, %rbx
	jne	.L22
	leaq	8(%rsp,%r14,8), %rbp
	movq	%rsp, %rbx
	.p2align 4,,10
	.p2align 3
.L24:
	movq	(%rbx), %rdi
	xorl	%esi, %esi
	addq	$8, %rbx
	call	pthread_join
	cmpq	%rbp, %rbx
	jne	.L24
	addq	$64, %rsp
	.cfi_def_cfa_offset 48
	popq	%rbx
	.cfi_restore 3
	.cfi_def_cfa_offset 40
	popq	%rbp
	.cfi_restore 6
	.cfi_def_cfa_offset 32
	popq	%r12
	.cfi_restore 12
	.cfi_def_cfa_offset 24
	popq	%r13
	.cfi_restore 13
	.cfi_def_cfa_offset 16
	popq	%r14
	.cfi_restore 14
	.cfi_def_cfa_offset 8
.L28:
	rep ret
	.cfi_endproc
.LFE1018:
	.size	exec_threads, .-exec_threads
	.p2align 4,,15
	.globl	compute_avx
	.type	compute_avx, @function
compute_avx:
.LFB1019:
	.cfi_startproc
	rep ret
	.cfi_endproc
.LFE1019:
	.size	compute_avx, .-compute_avx
	.section	.rodata.str1.1,"aMS",@progbits,1
.LC24:
	.string	"%d  %llf\n"
	.text
	.p2align 4,,15
	.globl	calculate_FLOPS
	.type	calculate_FLOPS, @function
calculate_FLOPS:
.LFB1020:
	.cfi_startproc
	pushq	%rbx
	.cfi_def_cfa_offset 16
	.cfi_offset 3, -16
	movl	%edi, %ebx
	xorl	%edi, %edi
	subq	$64, %rsp
	.cfi_def_cfa_offset 80
	leaq	32(%rsp), %rsi
	call	clock_gettime
	movl	%ebx, %esi
	movl	$compute_float_op, %edi
	call	exec_threads
	leaq	48(%rsp), %rsi
	xorl	%edi, %edi
	call	clock_gettime
	movq	48(%rsp), %rax
	subq	32(%rsp), %rax
	imulq	$1000000000, %rax, %rax
	addq	56(%rsp), %rax
	subq	40(%rsp), %rax
	movq	%rax, 24(%rsp)
	testq	%rax, %rax
	fildq	24(%rsp)
	js	.L33
.L31:
	movq	fp(%rip), %rdi
	movl	%ebx, %edx
	movl	$.LC24, %esi
	xorl	%eax, %eax
	fdivrs	.LC26(%rip)
	fstpt	(%rsp)
	call	fprintf
	addq	$64, %rsp
	.cfi_remember_state
	.cfi_def_cfa_offset 16
	popq	%rbx
	.cfi_def_cfa_offset 8
	ret
	.p2align 4,,10
	.p2align 3
.L33:
	.cfi_restore_state
	fadds	.LC25(%rip)
	jmp	.L31
	.cfi_endproc
.LFE1020:
	.size	calculate_FLOPS, .-calculate_FLOPS
	.p2align 4,,15
	.globl	calculate_IOPS
	.type	calculate_IOPS, @function
calculate_IOPS:
.LFB1021:
	.cfi_startproc
	pushq	%rbx
	.cfi_def_cfa_offset 16
	.cfi_offset 3, -16
	movl	%edi, %ebx
	xorl	%edi, %edi
	subq	$64, %rsp
	.cfi_def_cfa_offset 80
	leaq	32(%rsp), %rsi
	call	clock_gettime
	movl	%ebx, %esi
	movl	$compute_integer_op, %edi
	call	exec_threads
	leaq	48(%rsp), %rsi
	xorl	%edi, %edi
	call	clock_gettime
	movq	48(%rsp), %rax
	subq	32(%rsp), %rax
	imulq	$1000000000, %rax, %rax
	addq	56(%rsp), %rax
	subq	40(%rsp), %rax
	js	.L35
	vcvtsi2sdq	%rax, %xmm0, %xmm0
.L36:
	vmovsd	.LC27(%rip), %xmm1
	movq	fp(%rip), %rdi
	movl	%ebx, %edx
	movl	$.LC24, %esi
	xorl	%eax, %eax
	vdivsd	%xmm0, %xmm1, %xmm2
	vmovsd	%xmm2, 24(%rsp)
	fldl	24(%rsp)
	fstpt	(%rsp)
	call	fprintf
	addq	$64, %rsp
	.cfi_remember_state
	.cfi_def_cfa_offset 16
	popq	%rbx
	.cfi_def_cfa_offset 8
	ret
	.p2align 4,,10
	.p2align 3
.L35:
	.cfi_restore_state
	movq	%rax, %rdx
	andl	$1, %eax
	shrq	%rdx
	orq	%rax, %rdx
	vcvtsi2sdq	%rdx, %xmm0, %xmm0
	vaddsd	%xmm0, %xmm0, %xmm0
	jmp	.L36
	.cfi_endproc
.LFE1021:
	.size	calculate_IOPS, .-calculate_IOPS
	.section	.rodata.str1.1
.LC28:
	.string	"a+"
.LC29:
	.string	"IOPS"
.LC30:
	.string	"FLOPS"
	.section	.text.startup,"ax",@progbits
	.p2align 4,,15
	.globl	main
	.type	main, @function
main:
.LFB1022:
	.cfi_startproc
	pushq	%r12
	.cfi_def_cfa_offset 16
	.cfi_offset 12, -16
	movl	$10, %edx
	pushq	%rbp
	.cfi_def_cfa_offset 24
	.cfi_offset 6, -24
	pushq	%rbx
	.cfi_def_cfa_offset 32
	.cfi_offset 3, -32
	movq	24(%rsi), %rdi
	movq	%rsi, %rbx
	xorl	%esi, %esi
	call	strtol
	movq	8(%rbx), %rdi
	xorl	%esi, %esi
	movl	$10, %edx
	movq	%rax, %rbp
	call	strtol
	movq	16(%rbx), %rdi
	xorl	%esi, %esi
	movl	$10, %edx
	movq	%rax, %r12
	call	strtol
	movq	%rax, %rsi
	movl	$1000000000, %eax
	movslq	%ebp, %rcx
	cqto
	idivq	%rcx
	cmpl	$1, %r12d
	movq	%rax, ITERATIONS(%rip)
	je	.L43
	cmpl	$2, %esi
	je	.L44
.L41:
	popq	%rbx
	.cfi_remember_state
	.cfi_def_cfa_offset 24
	popq	%rbp
	.cfi_def_cfa_offset 16
	xorl	%eax, %eax
	popq	%r12
	.cfi_def_cfa_offset 8
	ret
.L43:
	.cfi_restore_state
	cmpl	$2, %esi
	jne	.L41
	movl	$.LC28, %esi
	movl	$.LC29, %edi
	call	fopen
	movl	%ebp, %edi
	movq	%rax, fp(%rip)
	call	calculate_IOPS
	jmp	.L41
.L44:
	movl	$.LC28, %esi
	movl	$.LC30, %edi
	call	fopen
	movl	%ebp, %edi
	movq	%rax, fp(%rip)
	call	calculate_FLOPS
	jmp	.L41
	.cfi_endproc
.LFE1022:
	.size	main, .-main
	.globl	fp
	.bss
	.align 8
	.type	fp, @object
	.size	fp, 8
fp:
	.zero	8
	.comm	ITERATIONS,8,8
	.section	.rodata.cst4,"aM",@progbits,4
	.align 4
.LC1:
	.long	1075838976
	.section	.rodata.cst8,"aM",@progbits,8
	.align 8
.LC2:
	.long	0
	.long	1072693248
	.align 8
.LC3:
	.long	0
	.long	1074266112
	.align 8
.LC4:
	.long	0
	.long	1074790400
	.align 8
.LC5:
	.long	0
	.long	1075576832
	.align 8
.LC6:
	.long	0
	.long	1075838976
	.align 8
.LC7:
	.long	0
	.long	1075970048
	.align 8
.LC8:
	.long	0
	.long	1076101120
	.align 8
.LC9:
	.long	0
	.long	1076232192
	.align 8
.LC10:
	.long	0
	.long	1076363264
	.align 8
.LC11:
	.long	0
	.long	1076494336
	.align 8
.LC12:
	.long	0
	.long	1076625408
	.align 8
.LC13:
	.long	0
	.long	1076756480
	.align 8
.LC14:
	.long	0
	.long	1076887552
	.align 8
.LC15:
	.long	0
	.long	1076953088
	.align 8
.LC16:
	.long	0
	.long	1077018624
	.align 8
.LC17:
	.long	0
	.long	1077084160
	.align 8
.LC18:
	.long	0
	.long	1077149696
	.align 8
.LC19:
	.long	0
	.long	1077215232
	.align 8
.LC20:
	.long	0
	.long	1077280768
	.align 8
.LC21:
	.long	0
	.long	1077346304
	.section	.rodata.cst4
	.align 4
.LC25:
	.long	1602224128
	.align 4
.LC26:
	.long	1353896030
	.section	.rodata.cst8
	.align 8
.LC27:
	.long	3221225472
	.long	1108761099
	.comm	__gnu_lto_v1,1,1
	.ident	"GCC: (GNU) 4.8.5 20150623 (Red Hat 4.8.5-11)"
	.section	.note.GNU-stack,"",@progbits
