	.file	"memory_benchmark.c"
	.section	.gnu.lto_.jmpfuncs.ad2ce8f68053bfca,"",@progbits
	.string	"x\234cb`b\300\006|\200\302v@\232\223\201\221\231\251\232\341W\303\214\006\201LF\0069\006\306\271\r3\0342\031\031\341*\231\230\"\0303\031!\2460c\n\261\222\250\037\302SA\227a#d\f\221\346"
	.string	"50\202\271 \247\2623r03A\225\262"
	.string	"\371,P6+\324HNv&\204\245lr\fR\020K\331\3416\302%9\344\0304 \222\234\230\222\\r\f\226\020Inln\005\271\244\f\354fF\b\305T\206\252\202\013\354j\030\342\206;\231\207\005\311?\274\rS^\337aF\347\36101@\302\255\003\344\020\276dDx\241\n3b\027\206\247\r&\344P\345g\200\005/\027)\202\f\022%\031E\251\211)\n\252)\n%\371%\2119\n\371\005\n\2529)\\\f\2749\211%\251y\311\225@^\032\027\203"
	.string	"PY~izFAi\tD\200\025L\002"
	.ascii	"|\356]\""
	.text
	.section	.gnu.lto_.inline.ad2ce8f68053bfca,"",@progbits
	.string	"x\234\215\220\275J\304@\020\307\3773\27397\331\\\022,-<\261\263\020$\210\202\305=B\032} EK\3014\202\205E:\005\301\342\236\340\270J\254l\024\037\301\302\326\332\333\257\004\24390E\346cg~\363\237a0\206\276\223\220\216Q\224\327\202\bd\0021}:\3171j&\f\331L\244}\227c\223F]\325\225H\311\262\344\230 ll3\260\231\250\330\375\346\226\260\377x\237\376\217\200\0160*\016\277d\0138\3728\333X\005`mJVQX\003\344#\302\032\364+\002\222\213\372*\tH\023\2529\326gL\354\336\310\025d\213K\345\013\024\302"
	.ascii	"C\2162\202t\023\352*\336\332[\0201w=\242<\235e\276\207_r\031"
	.ascii	"\032\255\220V\320o\353\367\350].A^\232Yj>\365$t[\f\032\215\355"
	.ascii	"\233\236\360h\363\371\356\247\bnnI\201?\037\322\324\255j'\332"
	.ascii	"M\334M\332\323\370\177\212\2357cX_\034#~?p\263)\351]{\310s\302"
	.ascii	"\255\023en\031\243\341\217\203%\321vJ\365"
	.text
	.section	.gnu.lto_.pureconst.ad2ce8f68053bfca,"",@progbits
	.string	"x\234cb`b\020f\200"
	.string	"N\006)V)6)vV\016\tNI.\tn)\036I"
	.ascii	"\f\202\0014"
	.text
	.section	.gnu.lto_read_write_op.ad2ce8f68053bfca,"",@progbits
	.string	"x\234\245V_l\223U\024?\367\373\323v\243\245\3556\376\303(\033\004\030\2430\005\211\017&\274\370\340\203o\314h|h\272\266)_X\331\322\325\230at_\3279+lZIH\246H\202\b\n\"\"\231\244  Ep\260\007\376\230\3700X\214s\004H\034\002\t>LD\352\271\367~\337m\273.\3613~\t\367p\3179\277\363;\367\234s\357*\201\004S\277\227\360_\217\023\240\226"
	.ascii	"\020\007\020)s\005 \351\220\210\215\377G\226\224\364r\320+U\272"
	.ascii	":\025\242r\265\312\355\347\0346I\356\273\b\350`\357\261\243\203"
	.ascii	"\235\020\252\007\002]\222\254\2506;\351z\205P\236\252:\370D\327"
	.ascii	"3c\007Fwy\267\357\355\323\273\307\362"
	.string	"\371\305\032\301\214f\023\b\021x\231h\204ldBr\224\246\310\220;s\037\016\355)F\312\022\315\331\022\362X\357\201b\244\"A\2435\244\276\357\240\356M\356\325\037\347\3632\372H\360\234E\306\301\336\375\305\214\210|\321\"2;45\327W-\"G\207\372\213\221\252\004\255V+\373NIOl\022tZBfr\243{\034\231dZ\317\347\2734b\227`\007)\340|\034\247\224\343r\231\334\317G> \372\276dF\177\222\317\243\227C\202]EP\235K\3113-\347/\277\246\211>\256\233X\234\240\335\304b\272\017\236O\247r\372d>og\270C\326p;s\017o\225PbS\216[\205\376QD\211\270\013Vq\223\245\270\237\254\036\361\257\262\352\214[\205>.\255\316\357VqOJq\177\377+\356\250\224\303I;}$s\207\254'\020$gH\035\342\270\224Q\236E\251\030RE\371\003J;\211\021p\340\346"
	.ascii	"n*P\036G\351\004dt\341\346\"nf\242\374\034\245\033\225\252\207"
	.ascii	".^\\\344*\\\354\325h;\217\266\032\272\231EQ\263Qs\0225s\250f"
	.ascii	".\325\314\243\313|\272,@\333)\264-Dy\b\345\"\224\207Q\326\032"
	.ascii	"9.Fy\024\245\317\310q\t\312#(\353P\236CYO\203,\305\3151\334,"
	.ascii	"7\234V\030\340\225\006\270\301\320\2572H\032\r\373j\343\300~"
	.ascii	"\224\203(\327\320\223\254\305\305\326DS\305\362\251\320\203e"
	.ascii	"\367\361\022\004I\226\255'\331z\212\255g\330z\226\230\371\360"
	.ascii	"\263\363\260\274V@;\204\337&\\\361\335n&\022\n\3712tO\244\262"
	.ascii	"\243R\220\f\023\025\242\304\021\245|\250\275\227\2525u\025\250"
	.ascii	"\006\270\no\217\275\233\252\344J\2007\340\221\236\326=\032\251"
	.ascii	"\b\021\026\227\265\335N\r\3334Ri\346\310\23452\203\305\27412"
	.ascii	">\"\230\234\253\240A#N\356\330B\314A\271\f\251t*n:\271\320\217"
	.ascii	"\306u\3260S\367\360\300\315\021\3314\316\334\r\037%u\232\203"
	.ascii	",\262q\305X6\024\343\022\021\273\357\t\214\033\217\303H\266\013"
	.ascii	"\225\007\265\324_ur\372\035\302\342E\016\264\363\334\257U\233"
	.ascii	"\352*\226\271\235\263\353\257k\324\311K#\310\214\257\205\220"
	.ascii	"\"\346\3246\023V\215H\036\352\304\315K\252\251\255)\t\366fy0"
	.ascii	"\2518\330\023Q\276Y\b\345\007I}FL\345l\246\2576\212}sR1\rsJX"
	.ascii	":\313Y\344b\226qQ\201\271\b\345=\021\252y\250\245H 0\245\220"
	.ascii	"\363\231\261\332\350\341[\246z\001Z\030 o~\244\313h\346\355k"
	.ascii	"\"\303\205\242\231\212h\246;\306NO\301\356\351\232\271\bO\314"
	.ascii	"[VT\203Z\214\205&\3160y{D0,\236\236A.c\300p_\210p>\004\232\341"
	.ascii	"\356\245\036\366\275`\032\226\340\311\f\357}\302\273\216y/\341"
	.ascii	"\221\23216\376P\222\0312\333\277\300tZ\312\006\341*\330\312\356"
	.ascii	"\222'd\264;J\224(\221\320U#^~\365\276:\377\177\256\036&y\247"
	.ascii	"\177\265\231\300r\026~\251a\230\350o4\r+8)\300%\350\271s\356"
	.ascii	"\317!\271\bQWx\314\233\211\002C\365\364\\\303#\367sb\224W\376"
	.ascii	"\207\002\177'J\326\200\300B\277\356\027fv\225\325\211\300p\337"
	.ascii	"\212p\215\bd\341x\242\252\321\001\034\310\303\357\211s\256\216"
	.ascii	"\022U\3140\300u xvy\377\006\204+\217\263'\310u\220\361\314\362"
	.ascii	"\307\331o\320\320\240\334\315\236&4\230\r\360\207.=\366\215\311"
	.ascii	"\337\036\b\306\372\351\037\262Kp\341V\262I8E\305{\204tX\344Z"
	.ascii	"\251op?F'*\262a7|\322\351\301\203\270\227\351\236'\007 \335}"
	.ascii	"\337\206\331\252_\236\374\232%`7\236\354\341\201\207\327\304"
	.ascii	"K\340\027u\262\211:U\305\210b\324\251\252P\247\302U]c\276y\312"
	.ascii	"\3247o-\006D;k\307D\352\2218eS\224\216\023*\215\013`<%\3158x"
	.ascii	"\b\242\261l\306\3446\321\201\355\035\273\374i\371|W\207\214\207"
	.ascii	"\206j\006t}\275Fjj\241W\332\243\017l\324\310,sh\331\237\234&"
	.ascii	"\215_\356\357'\214\223\362\002\257\203A=M\177?b\224\037!9v\245"
	.ascii	"\336d\341\337&\274\022=v:$\325\261H\254-\336\031h\211l\rm\216"
	.ascii	"\005\343[\374!\260\267\007\343\301\230\277\311\225\330\034\217"
	.ascii	"\004\303\201p0\021\364?\345\351h{-\036\212\004\020\020hO\304"
	.ascii	"\375O\273;\022\301x\"\020\f\207\343\221\216\016\377:WdkX\354"
	.ascii	"\326{\320\030\215$\204\3733\316\226\326\266\320\226@\207\266"
	.ascii	"-\342\337\3405B\267\265\007\202\361x\260\323\377l\205\241\321"
	.ascii	"\302*\213\353*\211>\243(\366\314\216x(P\260\272\023\361h\242"
	.ascii	"h\357b{\323\277\262\300\3526\030\022m\211`+2;\250OB\213E\346"
	.ascii	"r\203oY\330\307l\276\266v\337\262\326p%\374\003\300\256[O"
	.text
	.section	.gnu.lto_seq_write_op.ad2ce8f68053bfca,"",@progbits
	.string	"x\234\245VoL[U\024?\347\275\276\266+\224\266\300\030\033\377\232\001\333`\332X\335\342W\276\3527\223a\364S\367h\233\356e\024Hib\230\321\275R\334\bCe\223%DC\206&\300\314\320i\320\340\302\2202\235\035\313\346F\266\030\266O\304\270\370\201\354\217_tn\206z\356}\177Z`\211/\361%\234\303=\347\374\316\357\334s\317\275 \200"
	.string	"\033\277\327\351\307Y\004 !"
	.string	":\001\205\241\237\001RN\001\355\332/\242`\353\337\r\252Kb\262\330\206\222f\2264\377\202\323.\210\203Y\240"
	.string	"G\237\203\002\034\210\314\016\bG\005\321&\331\035x\364Md<\336\235\360\251\252\016\255\334\373sY89\234\031Q\3732\271\034\326)H5U \204\021\336@\005\261\205+\301\271\276H\216=\225\371#;\352\033\030\033T{Wr9B\212\002\324YD\376}|\242\020i\023 `\r\251~vV\365\245\306\324\177r9\221b\004h\261\310\370\364\370x!#!_\263\210\374\350\352\373\205HI\200\203\026\221s\003\247\013\221v\001:,!\20723\3314\322fS\217r9\217\202\016\001R\230G\3725\244m323\224\271\220=]\252\216\r\033\234N\001N\024@UM\013\336g\262\316\036\037\364\251\371zi\022N\242\305\202/f\235C\307\214z\tx\306\032\360Tf>\273\216\223&\341\234U\350\315BN\002\316Z-\366\326\246}.Z\205\336\336\260\317\333V\201\277l"
	.ascii	"\376\366\237\300\363B\206\352\233\232\355\273\324L\227C\306Y"
	.ascii	"\334I8M\213\244\027HK\030G\260\323b\234\026\016\322\323\244]"
	.ascii	"@\fE\264\370\201\026\305\244'I\273\311(\2250\341!!zI8|\344\233"
	.ascii	"'_)[\2241T9Yf\310\262\225Y*\230e\033\023\225Ll'\337\005\362\355"
	.ascii	" \3759\351*\322\347HW\3535\325\220\376\202t-\3519\322u\f\344"
	.ascii	"\247\305yZ\324\353A\r:\270Q_\357\3227\262\233\364\327\244\367"
	.ascii	"\260\n\233H\330\233Y\t\324\006\t\372\250\177~mk2~\313\345\f\227"
	.ascii	"\027\270\234\345r\216\313y.\027\270d\273\007\326c\372\016\220"
	.ascii	"\244\367\260\025\005R\342u\350]M?\374`\257\214\227Q\202\030\332"
	.ascii	"c\244\200\254\017\322\265\206\315Af\200\033\360\336\312\375\264"
	.ascii	"K3\002\274\rO\324~\325\253\340\2260\362\274\374\340\034\314q"
	.ascii	"DA\227Q\035\017V\260\210\347\274\273\374tY0\262\272\366B\263"
	.ascii	"\202\305Z`\033\032G}\035\322\375\351\204\021TDq,oq9w\365.\216"
	.ascii	"\254-\213\206\263\370\023\3708\245\262\032D\263\032w\234W\303"
	.ascii	"0n3c\357\003\023\343\216\261\032\211d\3004\225\220\225\305K\305"
	.ascii	"\032\375\t\323\343!\016\362k\265\337,3\314^^\271CcW\337RX\006"
	.ascii	"\017\313 r\276"
	.string	"6\304\002\346\364\021\003\346#\244\226\352\273\265+\222a-]\227\354\235\315\311\204\302dkf\373\312\b\252m$=\201\206\261\234\333}z\263\327\036\333\f\307\326u,=\233Y\304B\226_\315\016T\020T;\023\323\264\215\254\f\t\b\033\032Y\311\235>\375\f\3375\314\333\311\303\0019\343\303\243\372a\346V\314\nw\230\207i3\017\323\023\347\273g`\317\263\016\263\212v\254\035Y\372K\263\007\325\224\213\\\372V\376\372\360U\303QC\245\350\321\371\216\325\362\350\032-y+\265\201\376c\0209rr\270\312\b\362\363\223\273\001\366M\303\357\r\353\347\023C\201\317\177\003\013WX\023\330}\031\270\374\177\356\013\025:=\374\274QD=QPn\200+\320\367\373\302\350U\261\300Q\233\177*[\321\006?\325\213\274\275\023\013\346\2305Xm/\221~ov\247\221\200\274\227ZfI\357\016\235\356\303\341\347\214\240]1\024\315\201"
	.string	"\270\003H5\211\327\226\276!\335h\033\274u\021\031\326\016\364\317\027+\353\356\343\334#\223\240\356\331\217\300\025\370\361^*h\006\305X?@\317NM\250\026\256\315OQv\224\360\016h\334"
	.string	"\302\324\334A*F\272x\353+N\350\320\237\267\305\345\311%\363\326\3546\333`7\333P\032\347\323\317\322\224\346\333\220\037\353=\306\373`\333\370>4QB\362\363Q[M?1w\325\034c\031\311\370\212f\321\257]\253\302\236\322&\226\313\256\017M3\233\223c+g\3067\217VYX\277\224\3142\242\252\373\025,\257\205\3738\252\216\264(t+u"
	.ascii	"\177\236\251\207\025\214\360\322\252\276S\255\241\373`Z\355'"
	.ascii	"6\366\327t\tR+g\033\r\026\355;@\223\330\347`3P\026\217\306;\023"
	.ascii	"=\241\266hG\370P\\N\034\016\204\301\331%'\344x \370BI\362P\""
	.ascii	"*GB\0219)\007\202A_RN\304\242\311\020AB]\311D \370\242\267\233"
	.ascii	"L\311\220\034\211$\242\335\335\201\340K%\321\216H~\271\317\335"
	.ascii	"\326\336\031>\034\352V\216D\003\301\375\245z\272\316\256\220"
	.ascii	"\234H\310=\201\340\313[t\223\022\221x*\367\272\204E\005\331<"
	.ascii	"\311D,\031\312\273\335|m\004\270\362D\036=e\2623)\267\023\227"
	.ascii	"\223\305$\225x\264Rs\370\033#~\356\363wv\371\033\333#.\370\027"
	.ascii	"(\210\361\\"
	.text
	.section	.gnu.lto_rand_write_op.ad2ce8f68053bfca,"",@progbits
	.ascii	"x\234\235V}lSU\024?\347\275\276\266t\037]\267u\214\r\266\262"
	.ascii	"\017L\030\0246\266E\375\213\177\365?\023f\344\257\322\265\315"
	.ascii	"x\201nK\327h\300(\257\353\300\3110\031\004p\250D4\031J@Q'L\202"
	.ascii	"J\247\"l\200H\242\221I\b\363+\030QD4A\bR\317\275\367\335\327"
	.ascii	"n#\261\261\311\356\331=\347\374~\347\353\336\333*\240\300\314"
	.ascii	"\317\343\364\367\\>\200\033\001\320\t\250\f~\001\220p*h\027\377"
	.ascii	"\250\212\255\377\0010\\\032[\363m\250\t\265&\354cN\273\242n"
	.string	";\005\344\340\350s\220\203\003\221\351\001a\223\242\3324\273\0037\255F\026\307S\003\257\031\306\340\324\360\301Ie\373\316\324\220\321\227J\247\261ZG\312\251\f!\204\360\004\352\210+\271P\234\323\223\344\330\035\251=g\366z\266\356\333f\364N\245\323\204T\025\250\316\021yd`\1776\322\246\200?7\244\361\372\233\206'\261\317\270\233N\253\344\243\300\312\034#\216\016\fgG$\344c9\"O\234y!\033\251)\260&G\344\355\201]\331H\273\002\2359!\007S\227&\222H\305&n\244\323n\035\035\n$0\203\364\t\244m625\230\272<\261\253\330\330\267S\306t*0\220\0055\204T\212\356\033\365\312\326m\036#\223/\235\204\355\230c\3027&\234\203[d\276\004|57\340\216\324\237\023\323b\322I8\230+\364\257\354\230\004<\236k\262\267f\3259\236+\364\357\031u~\225+\360\316\f\340\217\271\002\357\316"
	.ascii	"\376\366\237\300\303J\212\n;\373u\337\315e\017#\004\3618\326"
	.ascii	"\020N"
	.string	"H\225\344\030I\r\243\bv\332\f\323\306Ar\204\244\013(B\036-s\n\331\177nR\177J\352\"\222o\220\364\220R+fK\t-j)-\016/\331N\220\255\214m\3462T9iFI3\217i*\230\246\222-\363\331\262\200l\307\310V\305l\325\2649I\033\037\311\003$\027\222<H\262\306L\265\226\344[$\353H~D\262\2361,\242\315a\332,f\f\rL\263\204-K\331\342\247EYf\242\227\233\254\215\346\276\311,|\005\311wI6\263:Zh\261\2672*j\233\006}\324o\237hE\020\217\360u\224\257\307P&%R\0215\013B\321#Q\n\260\311\320g\025\255\364\374\266\241BB=\007\275\327\222\243\273\032\202x\n5\350@{\007\t \355\365d\225\3249H\rp\036\372\246N\017;\244\322\3654\3341\372\215\"\035]!\344\304|\336y@\031\347s\206k\311v\351\234G\376\214\301&\024"
	.string	"\026\270 \204\342{\206\234t,dN\233\247\3067\273f9\272C\250ZQ\034\314\260Q\307\"\331\n\356\254\243\207\007\376\366\342{\223\212\f]\330"
	.ascii	"\213u,\026\216\355(\317\3419H\366'c\322\311M~\214\267\270\224"
	.ascii	"\233z\307\207F&Ui,z\031^J\030,\007\325\312\246$\312kf\230\022"
	.ascii	"\213\261\367\272\205\361t\260\034)\310VKULZ\346\257\345\213\360"
	.ascii	"\003\226\245\204b\220]\344\376e\211T\227\362\314\035\"\272\361"
	.ascii	"\224\216\245\344\312\030D\037\332\021\263\"'7J\230\227"
	.string	"\220\202\352\203\221qMj\313\246\221=3\233L\311&\273g\265o.AE!\311\375(\225\345\\\3575\233=r\333&\r\363\246E\3310;\212\232\035\345{\253\003\025\004\0253\261T\225\244eH@\230\321\310\371\334\3505g\370\254T/ \013\007\244\345\0077q\237\347\223?\354^-\275\252(\222Y\022e\360\244TW\223EL\376\342\321\357\254r|\326\344m\326\344\275Q\336*\026\311{\277\311/\244\366\210\371&\337\266\032VC\\d2\243\376\276\373Qi\250\245\274M\357L{\353\270w\255 o\243\236\321\217&\225#\323\273+\245\323\">\346\363`\237uS\312Bh3\257\224\302/K\035s\327q\256\270\\?\237\374\377\227\353<$\247~\031v\313\034\026[\004\345!N\310\334\346\3113d\325\323@\236\274\310=V\227\226pm\265y\262nZ\307m)7yM\212\243\026\205\237L3n\3152*\217\f"
	.string	"\247\241\357\352\330\344\231lC]\346\013\247\215\232\361y\255\312G{|\314\272\017\313s\035-M\346c+\215F\002\3629\nf\315\234\f\035\303\253/.\221NM\035\250Z'\027`\022\220rR\017]~\237d\243\355\327\313\037\"\303\332\201~\373\252\374\232\216\376a\005\250\277\377ku\032>\373)\321h9\321\203%-\223@M\250Q\016]:D\354\250\341$\210\330"
	.ascii	"\312\331o\326P2\332+W\336\341\001\035\346s?>t\342\202\325\357"
	.ascii	"\025V\033\354V\033*\242\37400\232\212L\0332\367\257Y>d\266\231"
	.ascii	"\017Y\013\021\222\335|\375\357XU\265v0FR>\"4\346\373\320\246"
	.ascii	"\263\257\226\026\306e7\017l+;c[\246\376\031\236}\254+C\246\027"
	.ascii	"\323\f\031F\213\216\363\253\340\026\3565\206V\352\270@\236S\376"
	.ascii	"u\325\252\213\353\374\3115\263R\321\320f\0301\372)\032\373Mr"
	.ascii	"\001\022S\367\352e\024\361YEOj\237\203\235\201\222h$\332\025"
	.ascii	"\333\020h\217t\206\326F\203\261u\376\0208\273\203\261`\324\337"
	.ascii	"\370`a|m,\022\f\007\302\301x\320\337\370\220'\036\214uD\342\001"
	.ascii	"\202\004\272\3431\177\323\362\242\036R\305\003\301p8\026\351"
	.ascii	"\351\36175\026F:\303\231mSA\373\372\256\320\272@\217\2761\342"
	.ascii	"oZQl\322uu\007\202\261Xp\203\277\251y\216\251\322\303\032\247"
	.ascii	"*\230F\230\227\305\346\216\307:\342\201\214\271\200\357\245\203"
	.ascii	"+\023\310mR\306\273\342\301\365\024\313\311|\342z42\247\263+"
	.ascii	"\300\335z\312\205\213\257>\354\343^\276\256n_\375\372\260\013"
	.ascii	"\376\005\312oQ-"
	.text
	.section	.gnu.lto_get_total_op.ad2ce8f68053bfca,"",@progbits
	.ascii	"x\234\215R\317k\023Q\020\236y?v\267I\004\213\320kK\251\340\251"
	.ascii	"\250w\301?\"\005=\2055\ri\3245\262\344R=\344m\0231\2649\304\234"
	.ascii	"\304\366`\241%\210\007\357\342\241\202\240\225Z\352\261\267 "
	.ascii	"x\023\317\326\202\353\367\366G\264\236|\2603\363\276\231\357"
	.ascii	"\233\331\341\t\022\364\357\271\206\357\t\340\253\360\354\020"
	.ascii	"\213\301!Q\344\tVi \323\340\255\247\204\354\277'2\005\335u\311"
	.ascii	"\2244\263\305\211\251-\244\322\334\276\311VN\316\323\2661\303"
	.ascii	"\361\243\341\316\364\372\363\276Y\033\307\361l\203\321x\206\251"
	.ascii	"\312t\203\033\314\327\023'\274\263\223$\314\301\336\311\270\307"
	.ascii	"\346\213\031\230_q\214*)\350\322\1772O\267\274A\3243q\334n\260"
	.ascii	"\022t\345\017m.\245\251\263\264Wb\017\323\275\031\035]<\307\344"
	.ascii	"\363"
	.string	"\210\3471\246\317/\340%\007L\032\227]\\\034j\260v\255\361`h\nF\025`d1c\2252\026\216\246.F\231K\361\034\255&\253)\303bue\026pr\211%a\237\362\023\255\355?\035.\370\374\2225\325Yo\322\263\310\230\363\350\363\220~\232\236\215\234\200\255\200\375\005'\033\035\254\3572\3478uH\002\352\254O \027\250\255\327*)\356lL2\036z \237H\274\3269:\205\266(W\310[\032\375\325\246\363 /*\240.Q\353M\324\212\t\312)\3329=\231$J\230\311*\251\\k\211\025\341\301\310\017\364\356k\344\346e\242\2165d\347\230\3302p\027\007\217\361OE\331\337w\217)\225\001\370m\004\260$\177\270VL\333\035~\246h\374\321\311\265\262Ne\004]\327>\364\013A-h\206\253\225[\265{\325\225\300\017\357,Vi\272\265\022\326\374\345J\363~\305\017C\177u\361\262\327j\266\374\273"
	.ascii	"\370\366oy\317\245+"
	.text
	.section	.gnu.lto_exec_threads.ad2ce8f68053bfca,"",@progbits
	.ascii	"x\234eR=hSQ\024\376\316\275\357\347&i\022C\301\325\320\245\016"
	.ascii	"m\007Q\020\034\354\250{\n:iLC\362\220X\b]j\207\3364\0213\210"
	.ascii	"\304\322\301\245`\207\242\242\340\340\242X\360U\024uh\304I\212"
	.ascii	"\016\021q*\244.\"t\211\347\346\275\3274\355\201\367\316\273\337"
	.ascii	"9\3379\347;\367\t\b\034\265\353\374\\\226\300i\366\024\003\211"
	.ascii	"V\033\250)AV\360!\203\217-e\ty\357#\240\343v\303\205\036\261"
	.ascii	"\311589\201\337R\256p^\1770q\365Mq\\\021\031\034\204%!-\333q"
	.ascii	"\025-]%\323Q\216a]\353\225\316\235\356O\361`\325\177\250\033"
	.ascii	"~\257G"
	.string	"\247<\342\351N\022\n\204+\344\021M\367\235P\303\343\032\256\337\362w\332\367I?Z\325\313\235^\217\231R ;`j+\240N\037\247\352\226\377\275]'\275\242k\177z\275\264G\226\300\370\200\231\r\210\3260\361\205\360\271\315\346\337\306\376\205QB\236\236\322\030\217\032x\207*\004\027\036\331\212_N\214\217\024\347\330\006\307\022\214\270\31101\025\3724\203*\023\036\330l4x\252l\236\036\3639B\013\375E\345\370\315\273\316\221`'gH\202/@nc\271[\377\2656\221\247gd\243Dn\2118\217\321]\031A\212\321>\324=\200\342%\276\\\003\355\037@\211E\334\346\001'\361\\\263-x\024\013\206\350\327\033\330\027\334\365\303f\300\"\366uS\237\360(^\b\263\270\216\331Y\002A\023\345\321\210\351So\326\337\254]\212Z%\271\246\311\262\242\3123d\201\177\017\371\t\357\177\327\334(\215J\344Dmw\0200"
	.ascii	"\361Dr\005\331\214\031\232mVa\242\2510jm\376+\233\200\203\365"
	.ascii	"\363f7?^\355}\026Q\301\364$&\016\351\022\207D\331\307$%\013a"
	.ascii	"\002\363L\361\024\370\252\322\241\230\275\201\230\f\027:\"\306"
	.ascii	"\305\306E\032\326\"\206\264\360)e\263\274\214\023\310PF\3066"
	.ascii	"\336\355\206\243\006\023\236\305K\335\344\312,\020_Q\353\274"
	.ascii	"\035\217\206\f,\307;o\270f\310\321J\2612W]\270v\243x\253P\256"
	.ascii	"\344\2537\247\n\210U\212\363\345\271\331\2513\347\234\371r\265"
	.ascii	"\230\237%\357?\325\356\314\036"
	.text
	.section	.gnu.lto_calculate_mem_perf.ad2ce8f68053bfca,"",@progbits
	.string	"x\234\225U\315o[E\020\237y\037\266\343\304\211\023\347\2539$i\276\013RA\002$\204\250\324\023\352\037@%\340\022^\335\364\345\225|\024\327=\244Hd\335\227\264&$\221\311\001\005p\2409@\222F%\264A\bUH5\021\b*AKN\250\234\254\034\n\002T@\345\320\022\211\307\354\356\333\347\222T\302\254\344\331\335\231\337\374fvv\336Z\003\rv\216\003\364\353\217"
	.string	"\274J3\206"
	.string	"\265\334u\200LDCC.t\271\370<bh\372\364W"
	.ascii	",jN\204\201U\231\210\\\017\b\343\232n\2308\376<r\272\212\016"
	.ascii	"Xd,W\374rk\023\227Xa\236M\024<\017\333"
	.string	"\034\244\320\215\bI\204\347\320A<(&-\362\357\\\244/\373>\217Y\267\300\356z^X\370\265\226\343W\310\025\336\234\255\310M\261\314\357\236W\343\240\256\301\276\222\037\223\263\026\177\220#\273s(;\251\342\221\337#e\371\261\\\341\275\331\231^v~\232\235)z\236<\342c\345\035\261p\371z\"wV\245J~O\227\351\267\235\217\3442Y\346y\343\016\032\032<Srk\227n\306\003\335\356\025\263\310\266\250\264\177\323e8hZ\370!j\345D\234+\274\2618\265x\277oH\203C\377\225\354\232V\240\212\344\377\230\330xj\237\216\303\b\006\t4I\020\322\302\213\330\001Q\2404*\271\250\342\"\306E5\t\250\341\2538_\325rQ\307\267\t\276\252'\3175\362l\340\233F.\232\270h&\365\022\251\367\360M\013m\336\247M\033\315\037\323\334N\363%\232\367\2221\334\301E'\211P\027\t\243\2333\367\020`\235"
	.string	"\275\376\334\347;\3200a\202J\327.\te\f\013W\204\\\025\362\242\220k\002\235\024\315\377,I\3728\016Sm'\302\372\r\230,N\237\213Z\370\t\232d|\005\376bY\026w0\222D\201\026\2453\270\341\264\203\025\212[\200\035\214\002\334\200\263\305\231\037\303\273\374+\223(?c\033u\033\r\033M\007\2538|\2628\373?\302\255\356\b\307\307a\324\201>r\375[8sm~\256+(\301\272\300\312\302\250"
	.string	"\024\276\355\035x;\303x\220P\020.6L\0342X\314o\007b\273\255[\370\031\271\331\270\327\246V%\225;\025\250:H\313\361aC\200\335\327\003K'\305\260yT\242\270b*mW\020\226\016\337\311=C\367ErO+\\7A\005a6 \354\025\332\036\251u\267\357\005\206>JK\024\bA\225\302"
	.ascii	"z\340\364\257\341\213[\231\260\202\031\"{9nB\017\367\240Zh\337"
	.ascii	"\234\013\021\267>}-|\023\332\375:k\277.\221\262O\277\033\346"
	.ascii	"d&\357\bJo\331\275\232o\221%\2641\"R\341\0277\277\024\332uq\325"
	.ascii	"IQI\251\231g\354\t\007kZ\341\205\0056\177\320\301\270\272\007"
	.ascii	"bq\260V\034\375\207Oom\032\212;\3720<\344`\235\274\347#\352T"
	.ascii	"\002\226\013\022\250T\240\225\035 w\306\335\322\025\252\212\200"
	.ascii	"\374Pu\205\355\rO\f\034\367+\370\263\246@1\ni\363>\024\207\274"
	.ascii	"\202J_m\363>\340a?\262\225\256F\204M\250\334\260\224\333\262"
	.ascii	"{\241J\241\342\004\364\303|\020(k\005c\\2~7\242\324u\212qe7\343"
	.ascii	"\345\230B%\b(\030_s\217+]\275\340L\370\330\337\362\007\224\241"
	.ascii	"\301\346\345\345\215\352\336\016N\323(\364\021_\177!(Q\023\231"
	.ascii	"Z\340-\272\270\334O\374\235\244\377I5\250p~M\027xkJ|\263p\251"
	.ascii	"\367\325w\362O*\303\036\221\221\n\020\234\257\205,>\377\371\022"
	.ascii	"\371\334\237>9o\241\205\362Z\250\276\025^\224-\324Pj\241f\321"
	.ascii	"B\234\345\335\362X\032[\341e\311\322Tbi\361\033q\343\027\277"
	.ascii	"+\344u<\016\353,K\211\352\260\303\270\272\303\270\t\231\342r"
	.ascii	"o\360\276\200|R\221\276\034\376\336%\206\007\206GSc\375G\006"
	.ascii	"F\222\203\303V\352\245\375I\b\017Yi\332\216E\323\203\251\321"
	.ascii	"S\366\340\211Si\363d\332J\245\365\201\221\243\221\364h\332\032"
	.ascii	"\352\037=Q!\027'\007\222x\274\226\220\003\326Q\322\366[\251\224"
	.ascii	"5\266\377Q\263{\350X\024\342%\206v\241\210\371\324r\367\017\261"
	.ascii	"\261\036\357"
	.text
	.section	.gnu.lto_release_thread_data.ad2ce8f68053bfca,"",@progbits
	.ascii	"x\234\225\222\277K\303@\024\307\337\273\2465\355\240"
	.string	"VApR\272\350\324\241\203\277ppu\257\2408\2043\rm\221\330\022\343P\034z\225\"\035\253\210\224\352\342 *\"\376\013u\020q\260\305\315\261\243\243\324I\227\370.\255)\025\301\372 \371^.\357\363\311\345\022\006\f~\3268\035\0174\275N\211>@V\256\003\024T\206(\007\200\220g\230_C\331\252D\340L\210\303\346}\353\016\017\216j\025Q\2549\016N\244\221\264c\b:\302*\246\021\227\334`j\357s\332l\355\270Q\n\225\367E\341\315q\206\\p\272O\260\322\003\372\030,\364\tV{@\205\301\362_\340-\2535\035\347\364\243\330Z\f1\340x\216\021P(/(\003\224W\224*\3455%\225\037\212B\224'AZ\251\342t\226[\267\202L\246\357\t\366\036_h\3078\336\240\037\222\310N\240Z\020b\230\336~\027>EI\216\374\246\213\312\305\370;\213h\200\322&\240\333\026\320\321\355\223\2264\016"
	.string	"H\367k\313S+\277\253\361\177j\305S\227\336=u\300S\373<F5\221u\324j\177\352\200\247\276\354\252UO\255xL\320\244\177\261\255\016\366\247V]\3653\024\232\365\251\357\276v\305\251\207>\204\\\352\250i\230\031+\247m\030[z\312\344\326fT\207\260\315\255\244aktK\313\332V46\023\336\316\354X\272\321\235\231\035\264S\226\301\023Z\202\333<\032\233\033\351\\f\262\032\267,\236\213\306\346\277"
	.ascii	"\327\320\304\214"
	.text
	.section	.gnu.lto_init_thread_data.ad2ce8f68053bfca,"",@progbits
	.ascii	"x\234\255TMh\023Q\020\236\331\237&&5M\322\322\322\026b\351\305"
	.ascii	"\202\020\324z\022\024\257z\023ZT(\206\3556\244\241\246)kz(\036"
	.ascii	"\262i\242\004\255\030K\017E\301*(E\213D\251\210\340%\005\301"
	.ascii	"?j\354\261X!\227\342A\250=E\250\310:o\337\356\206F\202\024|\260"
	.ascii	"\363\366\315\274o\276\357\315\316>\001\004\250\037'\350Y\227"
	.ascii	"\001\3424c\023\240P\370\004\220q\013(\361\027\221\277\254\270"
	.ascii	"%A\234y\013\240{\344\234\013\364f\031\221\371\001!-\210\222\214"
	.ascii	"\351\013\310\3225\365\302\003]\237\255lV\327\245\333s+\363z\256"
	.ascii	"d\030x \216D\335\216\240\"\234\3078\342)s\022\334\204H`M\f\007"
	.ascii	"\227^\225\363g\n\327\364\314\266a\264\230\310\276\006H\254G\276"
	.ascii	".\027\003\037\356\317\350\323\025\303\340\244\307\033@\205z\350"
	.ascii	"\327\362\303:\350\351\006Pq7\264PZ.gQ\237\265\365\212\002\f\325"
	.ascii	"\220=\034)\355\256\272\005|q\313]\310\344u\303H\233\260\213\377"
	.ascii	"\202\025\205\022\251\233\371\225\3339\331\203\240\340S\354\005"
	.ascii	"\231\346G4\273i^\244\331\203\t\224\274\020G\251\231\031\037\271"
	.ascii	"\037\223\333On9@\213\"-\202,\322\312L\033\031\271\235\214\330"
	.ascii	"\301L'3]\314t3\023\242\375K\264\237\206\f9R\334\3039y\026`ji"
	.ascii	"\f\220\245\236\030\244\232\346\\b\031r\225/\337\202\n>G\031b"
	.ascii	"(_\201\035=\257\373\343\330\244Z\337\213\235\314\245\317}\337"
	.ascii	"\020\211\203J\272\n\323\357?{8\340.\334\311\350l\367>\007\347"
	.ascii	"\341\035\302P\036\023OI\001\030\315F\215\306\375?h\260\216\206"
	.ascii	"\203\266\262?\357El\036o\214EW!{]\264]\315\344e(\2527\223%\331"
	.ascii	"~\337\337\222h\263#e\333U'\245V)/oO\226\324k\341|&\351\315\354"
	.ascii	"\357\220\235>\300\302\"?_\f\375\274A\006\2519\351/\025M\331K"
	.ascii	"\013}\366\346`\214)\330%\273\225\274\216l\212\334p\"mDGqS\346"
	.ascii	"\307\355\026\356>\004Ot\032\347\210\223+\326\317\306\331\321"
	.ascii	"\333X\016\331$\037\266~GS\215\251\266\2700d'm'\305N\355\262U"
	.ascii	"\264\375\035f\byM\236\371\366@f\227\264\303\314\231\317./L\331"
	.ascii	"I;)\243Y\036\004\213\360\245s\272.\223\260\323\002U\035\1777"
	.ascii	"\205L\214a\017L[_\312\273\007U\202\245\252\333\376 \022\320="
	.ascii	")\276\2037\233+ke\347\330\030\263\272\214]\277\300\305\002\b"
	.ascii	"y\221\244\211\363.\006\224\371\337t\265\262\265\350\264y\310"
	.ascii	"\351\221\375\252C\305\273O\242.\3675\350\362\026\007\346\347"
	.ascii	"\327\027C\370-x\b`\r2\225\037\0079\310\036\003T\340\234\213q"
	.ascii	"\264&\242\211\2446\025\031\216\216\253\243\tE\033\013\253\020"
	.ascii	"H)Z,\232\212P(2\221\322\302\375\207\003\227\223\223\232\032\255"
	.ascii	"y\216\370R\243ZT\031\211\214()%\334\1774h-\223\023\021E\323\224"
	.ascii	"\251p\3771\214{\207/%\325\261\210\232\234\034O\375\001d&\213"
	.ascii	":"
	.text
	.section	.gnu.lto_main.ad2ce8f68053bfca,"",@progbits
	.ascii	"x\234\215\223MO\023Q\024\206\337s\347\316\235\241\3643\306\217"
	.ascii	"\245?@\351\326\225\277\002\f\256L\031\2322\221bRda\\0\250\030"
	.ascii	"\023\026\"+S5!Q#\021\0047np\003\332\252\244\321Fb\342\266\013"
	.ascii	"\022b\334taX\270\301s\3570\215L\2452I\317=s\356\314\373>\347"
	.ascii	"\364\216\200@\374\272\304\277\357\026p\216WrAb\376\0130\343\n"
	.ascii	"aU\035\004\t\271\367\001\b\222\0269a]\n\373c\206\353j\353\"\227"
	.ascii	"\355\250\254\242\304!\322\t\b\323\302\222\266rh\3722\031\243"
	.ascii	"5\261\321\332\337_\335k.\256\220<)\250L\220\360\t\266\016J\207"
	.ascii	"$\007Jq\020i\235et\226\325YNg,a\343N\020\314\237\005<#9\310Q"
	.ascii	"\233\r\361&\257\326g\334Z\237}\372\354|\201\236\223\215\022\311"
	.ascii	"G\250\022\353\226H\f\363je\303\216\233\270\333^mo\237\356\250"
	.ascii	"\205\311\306\\m\207\347\020\276\354\221q(Q\362&~\007\367\202"
	.ascii	"\254O\322#Q\240%\3364\033\322H\002z\021\t\006\344:\003\374|\377"
	.ascii	"v\263\241\n\364\302\020\244X\300\224\327\353\215\332\216\035"
	.ascii	"\201\33110\2677X\243\366\253\033,\035\003[\211\300\354\336`\313"
	.ascii	"\206 \303\002\007`s\365o\0350\025\003;\363\237\211\325\3771\261"
	.ascii	"l\f\354u\004\246z\203\255\031\202\034\013h\303\331\366\273\007"
	.ascii	"\257(\224\006:\222\312\323\nF\216g\233\363\311\001>\241\266\273"
	.ascii	"\371d[DMd\214\001\375u\306\207\370\245\252cq\033\255\207?\372"
	.ascii	"\273D]\217\244yNW\\\237\372<:\230H\307&\021\tI\360\007a\031\313"
	.ascii	"7\013\251\303\226\342\220\245\215\373ic\371\370x\226\352(K\205"
	.ascii	"\335\013Zhq\251\3578:\316Q:\216\371H\232\270\335z\271\325M\324"
	.ascii	"\357Qx\f}}d\277b\246\265\354\207\017\231\336\242\276\006\371"
	.ascii	"of\031}\177\242\\,_\253\334\2702R\234\360\306\312\205\312\325"
	.ascii	"\001\017\247\362S\223\225\274?\341\215O\215\026\363\223\327G"
	.ascii	"\307\375\221\2011\374\001\342\035\376\260"
	.text
	.section	.gnu.lto_.symbol_nodes.ad2ce8f68053bfca,"",@progbits
	.string	"x\234M\216\271N\0031\020\206g\355\331\260\233l\356\204C\024<"
	.string	"\0179\221VJ@\024 (\220@Bb\227\373\276/\211\206 \240\n\022\r\035\202l\213DG\027`l'x\335|\363\215\347\037[\200\200e\001\346\210\r$\001s\035"
	.ascii	"\242\225i\307]Cp\t\334\030\035\205\b\205\302*J\206\330Dr\354"
	.ascii	"\250\330B\202\224\256#\311\201N9b\007\tS\272\215\344\246t\027"
	.ascii	")\223\322=\244\241\224\356#y\003}\022\316\021\222o\264\321p\234"
	.ascii	"\003\244\254\265C\244\234\265c\244\300\332\031R\336\332)R\301"
	.ascii	"\332\tR\321\332\005R\311\3329R\331\332%R\305\3325R\325\332\025"
	.ascii	"R\315\332\rR\375\337$\024\240\375\376\303,B\322\371\275uU#|\326"
	.ascii	"E\036\302\305\317\t\351\366'\334\022\304zB5L\221\207d\201'2U"
	.ascii	"3\221\251@\370\241X\200X\263\004m\275\212\033\211)\312\020\276"
	.ascii	"\350\"\017\361\022G\275:\204\275\257I\351\325 |\270\357I\351"
	.ascii	"\363\363j\227\357A\244\331\177\335\347@\213\003\314d\3260\234"
	.ascii	"gf\207!V\367\314\244O\375\266r\305\334\250\331\307l\017\250\373"
	.ascii	"#\020\317p>\0303y\246\376;S\347\202\034DMu\357C\267\371\346("
	.ascii	"F\255o\241x\367\370:.\203,t\371?\360\007\205k\320T"
	.text
	.section	.gnu.lto_.refs.ad2ce8f68053bfca,"",@progbits
	.string	"x\2345\212\201\r\2000\020\002\201\247\337X\335\313\3757\222j\204\220\034\004A\270\361\251\001\246V,\330#m\263\335?q&G\226\365~\030:Y\024I\327%h\250\361"
	.string	",\323"
	.ascii	"\371"
	.text
	.section	.gnu.lto_.decls.ad2ce8f68053bfca,"",@progbits
	.string	"x\234\255Z}p\033\305\025\337=\311\222\215\235\220\217\0222\035\3328L\351\264|\304\245CiZ\002qZ\230\322\376Q\372Ogh\351\364\270\310\262\255\"KF:\003i;\223\3056\306|%NB\212\247\204\240\222\004\002\201\342\220/\240v\020\371p\034\034\034c\b\004\222\200\234\224\232\322\206$c\302G\201\250o\367\366tw\253\275\223d\270\231\347\373\320\276\267\277\367{o\337\355\356YA\nz\255\f\241,\034G\277\213\320\325>\204\316B\b]\0052\005d\035\310\243 ~\220\r \233@6\203\354"
	.string	"\331\t\262\033\244\037d"
	.string	"d/H\020d\020d\b\344\025d\0343@^\0059\br\030$\0032\0062\016\362\005\210\202\241O\220\351 \263A\256"
	.string	"\271\016\344\006\220\033A\352A\242 :H+H'\3102\220\007\260\201k\r\234\377\016\322\003\362\fF\216\203\366w.H"
	.string	"d2H\025\310Zh3\302\261\316\343\276]\f\3176\203\\\004r>\265\005\317\266\300y\0356\374\330\n\347m \275 }\330\342e;\307P\003\347\365 \217\203l\340\317h\337\246?\3247\240\031\275]"
	.string	"\357\301\257\bo\032\316\277*\021\357A\216\367:\216\227>{\213\343\225a\2451\235U$V\352\373\213\330\310\241\0068\357"
	.string	"\321\212\364a'\310\357J\360%\310\261\325\363\3741}\272\301\346\327\001\017\27726\374\246_\001\356\013}\336\313\333c\336V\001\371'\312\267Cs\234\216\241!\233\235]\274\177jo>\310\2378\3368\234\373\2611\266Z\340\274\007\033c\255\211\333\364q{:\037\013\264\317\023 \307\235]\26215\023\344{\266>/\266\3659\217\373`\347}"
	.ascii	"\344=d\361k\216e\312\357\367y\\\314qn\216{\332\377\245\330\340"
	.ascii	"\336\317\373\245<S\214&\307\237\202\374\017\3443\t7t\334\323"
	.ascii	":3\202\234\271C\361\321\330\357\205\3536l\344\203\311\267\302"
	.ascii	"\365Z\271\375\036>\216\326HbHk\312T\316\261i\337\214\037\355"
	.ascii	"\347%l\324\251\345<_i\237f\356\r\202\334\305\261\320\276)\367"
	.ascii	"\366\374\362q\373\264\006\321Z\024\220`\t\202\224\013\230h\215"
	.ascii	"\233\304}6\363\211\366\273\017\236w\203\274Lm\203\fa#g>\004\331"
	.ascii	"\017\327g\270~\005\2671\214\215\332G1P\336i\235\241c\367U\316"
	.ascii	"\017\355v\212\320w%\272\233\220V\222j'\235\370\366\215\347ME"
	.ascii	"]\004\216\352\356\311\025\250\223^\245\327\220\231\2207\327c"
	.ascii	"\r\303\243rvQU\301L]\200\326B\003h\257h\3701\\\001aP\004\343"
	.ascii	"\346a\374N\017\252N\257I\226\037x\261\371hq\256\027\030\337\274"
	.ascii	"\233\231\\\375Q<\225{\312@\231hY\033\256Tk\352\224s\235'l]VU"
	.ascii	"X\027\347rPnz\353p\245\0139B\357r\023\214\225\256\314\211\177"
	.ascii	"\r+\204\224k\370I\306\314y\030]\210\0367\350::MBQ)\266\267l"
	.string	"\\\371cf\273\207\331\276\006\003\352\247\361\2059\262\003\025N\362\341\336l@\215\301-1\017\203~xb\306c1\372R\272n\244np%U\303\363+]\3256I\324\332\231\332t\264\234\361\0050:\217a+u|\246\211\271\026_}\375\375\243\270\rZr\245jw\r\ro\305\027\240\302\355\024\324LY\177\026L\032\364\030\203!\235\375\206b<E\216\2308\216\331(E\233\256\350\270\027\223L\006[C\316\030\007\322\376\250\271\336\t\f\202>\227A\360C\216EA\213M?\244\375\346\364l#\306\351\306\312\216%SI\352\336\363X&(\250\003\013\366\034\220<\314\331r\216\362\246\341\347!\020\032\376\007\236\r\177_\200\277\266\006\317aEHy\203r[\023+2HnE\316X^rnq\361\204Z}\321\312N1I\305j\352\bm\243ih\0227\264s\002\221\335\345\022\331*O\3774\274\303u$r\264i\277"
	.string	"\227\344\312\361\024n\243\177\002x\367\270\340=\273"
	.string	"\336\335\205\360\212\354~\307\264P\306-\354\235"
	.ascii	"\332\227\\\320\372\013\240\035\260\320\262\356Z\213\253\350}"
	.ascii	"w\277>\216[\241Bix\220\325\364=X,\352A\241\250\007\235\2059X"
	.ascii	"a]ds/\327<\316f\240\225,\306\264\032\336l/\275\2167;\265\277"
	.ascii	"\037\317`W>6\275B\254\255\206\177\343\313Ap\243`\3105`y\203\313"
	.ascii	"\026\265<3#\270\322\316\200[\263W\254\336f\241\325$s2\3237t`"
	.ascii	"\332\022\222\276\235\320\027\222\341\207\202\216\n|~\013\255"
	.ascii	"!d99tu\247\217y\246\240\223\254\305\253x\226\264+\326\b\216o"
	.ascii	"\243u\324\2055\355wL\231\311\237\271+q\210\257a\305\036:\003"
	.ascii	"f\372\231;\203=$\223\315\3162!~$\207\370\246\tQ\303\257\263\262"
	.ascii	"wp\"\020\335\2248\3047\245\020_\373Q79\231\315\236m\"lS\244\b"
	.ascii	"\217\210\b\017O\004\241\233\022GxD\212\360t\267A\342\303iR.\244"
	.ascii	"v\240\3025\265G\305\324\366W8S[A\313d\256v\221wj\257e\255\025"
	.ascii	"\264\2325\310X\240\253\355%\20252=%\344)\303S6/s(\311<=&\217"
	.ascii	"\305\022\236.\202\233W\235\343\352\346{\222\021lwY`\200\235\035"
	.ascii	"$<.\217\367ik\320le-\306<\343\315\251{h\301\265\234\350wY\222"
	.ascii	"\214yR\307\224\b9\262\300\344\273O\354\311\213\357\373\310\035"
	.ascii	"S0\343\006q%\333\241\341\377J\031\356*\235\341\017E\206i\355"
	.ascii	"+\211\342\0019"
	.string	"\305+\256\241\024\017\261\022\370\001\243k\334\225cVo9\311\207\004\222\307\013\223\334E\036\354(\357\302\\\355T\021j.4\217\2134\177\"\247yi\2114\027\037\216,\017G\376\241\240C\002\3219'\310z\342\313\371\360\205\350\003Qd>\254.\325\007\r\267)\3715\307;5N\310K\320\307\265\316\020\267*E\204x[./N\025\241\344\022`\252\344 \247#\237\234T&}z\177\202t\220\317\263Y\237\030:\277{I\276\307\213\036\376\216w\360\243\341\337*\371\364\020\322\227\253\320\304G\371\273\2730=fE\243\335(\350\016QM\030n\034\fg\350\036\250\354~\316\232{g\026b1\227`1\377\327\343\273\361\350\355)\343U\333F\206k\212a\215q\243\240\224\017\2334]o\fa\234cQA\353\255_\025\364\264G\323\334#\007@\206\371~g`\344;\"\3515\351\231\335\223\345\273D\032^\317\026r%\355"
	.ascii	"\345M\363\036V\304\245\026<|Pq\246\200\344`$\367d\206\376\223"
	.ascii	"\350,9'\037q\272\316}%\355\344\332\001\313WG\234\215\331|\372"
	.ascii	"\343\376\031\004\222b\255B\t\335\352s\016\343\242\315d\266\234"
	.ascii	"Zy%\333\346y\214\031J\373\304%\201_X\022\370\235K\002\277\261"
	.ascii	"W\363\211E\262\337X\033\004\321\204\365\344i0\r-3V\216\366\r"
	.ascii	"\023\347\262QA\373\030\376'\225i\310\276c\222Yz&\215\215\215"
	.ascii	"2e\032*\274kr\372\316\245|\273\301\330\374:\220\263Z\342~\003"
	.ascii	"\267\367\361\236\007\230\275\222\366\337F\037\3709\203\374\f"
	.ascii	"\013\314\341\274\300|\311\r8\005}P\262W\265\002]n\003i\203c "
	.ascii	"\t\257\234\217\034\236\360*\322\356\307\326\315}~q\213W\303["
	.ascii	"%\357\310\236\314\370\321\341w\355u-uQ1kO\336M\217?\277X\311"
	.ascii	"+\025{\252\341\277\230\030\270\201^\313\3007\321.\377C\244\034"
	.ascii	"9\016\r\367\212o\034\373\354xA\245\343\247A\354\234\312\261\027"
	.ascii	"\242\215\267~\277\204\267\227\355\274\035"
	.ascii	"\310"
	.string	"\343\315q\030\234\245?\177\216\2243\276\226\372\216(E\323\245\341\355\340\275[m\027\271\321\360NV6w)\366\227\351\260\027\033\302D\226\263!\344\316[\371\034hx\037\353\232\337\f9\363D\316Af\305\330\311\337\257ZE\332\333\310\231\354b\\|\265>\314=\260`)\350\023\031\246g\355\230\236\317\303\004KMY>\247O\275\261d2\031%\351lv~\tS\322Q\221\327\262\274\245\346\027\023\002yL:\350\226\036\375\024/!;\214\275\017\001\345\223\330\235\2741\021\346\006\\)\342l+\233\b\316\177Kpve6\276?0\177\"A>.y%\027\273\305\326\261\375\nV\264O\260\242\235*\373\2126\330r\224m\222\314R\025\364D\231\270\3560\032\215K\343\267\361\375\364\225\245\361\342Q\001\234\367>g\377\247]\346u\355|k\216\262$\177\207\344\355\342\2717\325\360gy\363\266\034_\233\261\263\310\0169\356\363"
	.ascii	"Y\203,\257\223\371\225\002\305B\f\266\3112WHVX\352\371d\021Y"
	.ascii	"16\374\347\207\314\210l$\344\331`\tk>_\201-TxsL`P9\016^\235\336"
	.ascii	"X\275\224W\247\027\356-O7\025\277\315{\227\210\221V\367\002\245"
	.ascii	"~P\006Z^\352\371\353o\244\254\230\327\337\310\352;\t6\366\363"
	.ascii	":\374\304_\274\023\313eN\b\313\305.\237R\022hC\2430\350w\006"
	.ascii	"\357w{/H\267 \275_\331\034l\267\317{t\246<\206\234m\251\344\246"
	.ascii	"N\367\326\335\324_q|\324\362\336\242xsB\257\204\224\223\327\363"
	.ascii	"\321\337Hj$\323\267d\225\177\031Iw\247)\225x\226|\205Qm[2\335"
	.ascii	"h\"\257bX2\f\313:\237sy\221~\343\306j\343i\341\245\305\241U\345"
	.ascii	"]7;\266I\250\236l\201VxYq\270v`.\237\247~\220\003V\254\251j\207"
	.ascii	"\251\267-S\343%\233\252\025\\u\213\372Z_.\352\260\f\310\205\325"
	.ascii	"\255\371SV\b\215\360\245G\256\356l\353\244k\306\240\221^\nj\r"
	.ascii	"\024\262\362t\236\225\341<+\313\nZ\331\230g\345\205\203\345]"
	.ascii	"\035]\374\323\305<j%U\320\312&\313J\336\013\216n\004\270\351"
	.ascii	"m\366\271\377c\003%\325Mo\213\207^\257G\177[-\275b\352\243\206"
	.ascii	"\373\330<_\303\333\304\032\231U*]\013\304O\334_\266\013\244\345"
	.ascii	"A\366\242\310\363k\236;\035\275\036t\334\357AG\237+\035\322\331"
	.ascii	"\222\206Wr:\266\213t\254\262,\345C\030\366\200\220\366\200>\346"
	.ascii	"\241\367\242\207\336\250\207\336\016\017\275\303\036z;-=\363"
	.ascii	"\313y\3471\354\230\276\021\277\251T\313\225v\371J\377v\276\333"
	.ascii	"'\377v\036tC}\332\003u\277\207\267\307=\364\366x\350\321\017"
	.ascii	"cnz\003\036zt>\347\246\267\327Co\271\207\336K\036zwy\350\rz\350"
	.ascii	"u{\350\355\363\362\317\203\317\227=\364>\364\340s\310C\357\214"
	.ascii	"\207\336~K\317\332\030\370En?)\325\031\370\222\253#\363\200\031"
	.ascii	"\217X\n\350\fJ\230\351\364\004$;<[\002\271\035\036s\332\203\244"
	.ascii	"3\037\376\231\341\021B\246b\303\274\202\2663"
	.string	"\213\303>\267\357\f|\032\307\2773\244\326\223\212\334g\006\233\222\3543\303\001a\336\352\0175j\211\257\325\264$\0235\221X(\332R\027\256\321#M\3419\215(@\317\252\036\370\331/\177]\375S\364uG\223\205\021=Y\243/j\016'\241a\271\252\032Mg\347\267i\326\033\023a\255\316l:\231\337\253\232\256'\300\266\252&#\177\f\007UU\213F\032bs\231~4\262\260\246!\024\252\271m\356\345\352\345\227]\222\b\3275j\372%\321H\254\345\266\232\313\346\314\235\363\203\\\017I\275\256.\\O\241R+\252>\275)\334\024O,R\027\206c\241\306&-q\323\234\020\232\224\320bu\352\255\211\210\036V\343\315e\315ZBk\252J\206o\316=\232\304\360\230wU\ra]\325\343\272\026\205\233\263bq\325\300\233\254\n\337\026\016\2317\201\246\260\336\030\257;ka4\036\272\211y0-\244EC-Q\rl"
	.string	"\006\2659\234\250\237\236\bG\303Z2\314\225\324:M\327\246Db\021\335\376\300\257%\032B\364\317-\3478\270\003\317\"qp,\030\213\307b-\321h\240>\236h\322\364@s\"\022\323\353+B\264\343H\235\252W\252j\356\272\234\006!\331\034\016\005\364[\324d84\025\310]\224\004`Q5\031\215\307\032T=\b?\304\340\227ILG\005W\251\n\204\017\200\326\253*\030\213\305\001\\\374VU\235!\300\201~\033"
	.ascii	"\017k\302\020\251j\260>VM\273\303\227\002\037M\241\346EA\256"
	.ascii	"\355\247\346\350\263dX\027\355\324At\301\216\237F\245,I\377\372"
	.ascii	")\206s\035\315x\222@\273\n3_\364*\363\352\017\361H,\227F!\370"
	.ascii	"\253\207\375\365\211p8@=\215\207\002M\306\t \353\361\350$\033"
	.ascii	"\327\252\016\355\342M\212\036\257\264=\235\234\214\267$B<lzb"
	.ascii	"\262\016\301\200\024\340\267g\363\226\361fUK$\264E~M\217G\200"
	.ascii	"\260\346\226DXU!}c\320\350\377\235\3070\232"
	.text
	.section	.gnu.lto_.symtab.ad2ce8f68053bfca,"",@progbits
	.string	"read_write_op"
	.string	""
	.string	""
	.string	""
	.string	""
	.string	""
	.string	""
	.string	""
	.string	""
	.string	""
	.string	""
	.string	""
	.string	"\334"
	.string	""
	.string	""
	.string	"thread_data"
	.string	""
	.string	"\004"
	.string	"\b"
	.string	""
	.string	""
	.string	""
	.string	""
	.string	""
	.string	""
	.string	"\243\001"
	.string	""
	.string	"source_mem_ptr"
	.string	""
	.string	"\004"
	.string	"\b"
	.string	""
	.string	""
	.string	""
	.string	""
	.string	""
	.string	""
	.string	"\256\001"
	.string	""
	.string	"target_mem_ptr"
	.string	""
	.string	"\004"
	.string	"\b"
	.string	""
	.string	""
	.string	""
	.string	""
	.string	""
	.string	""
	.string	"\260\001"
	.string	""
	.string	"thread_op_array"
	.string	""
	.string	"\004"
	.string	"\b"
	.string	""
	.string	""
	.string	""
	.string	""
	.string	""
	.string	""
	.string	"\262\001"
	.string	""
	.string	"seq_write_op"
	.string	""
	.string	""
	.string	""
	.string	""
	.string	""
	.string	""
	.string	""
	.string	""
	.string	""
	.string	""
	.string	""
	.string	"\330"
	.string	""
	.string	""
	.string	"rand_write_op"
	.string	""
	.string	""
	.string	""
	.string	""
	.string	""
	.string	""
	.string	""
	.string	""
	.string	""
	.string	""
	.string	""
	.string	"\323"
	.string	""
	.string	""
	.string	"get_total_op"
	.string	""
	.string	""
	.string	""
	.string	""
	.string	""
	.string	""
	.string	""
	.string	""
	.string	""
	.string	""
	.string	""
	.string	"\340"
	.string	""
	.string	""
	.string	"exec_threads"
	.string	""
	.string	""
	.string	""
	.string	""
	.string	""
	.string	""
	.string	""
	.string	""
	.string	""
	.string	""
	.string	""
	.string	"\347"
	.string	""
	.string	""
	.string	"calculate_mem_perf"
	.string	""
	.string	""
	.string	""
	.string	""
	.string	""
	.string	""
	.string	""
	.string	""
	.string	""
	.string	""
	.string	""
	.string	"\363"
	.string	""
	.string	""
	.string	"release_thread_data"
	.string	""
	.string	""
	.string	""
	.string	""
	.string	""
	.string	""
	.string	""
	.string	""
	.string	""
	.string	""
	.string	""
	.string	"\375"
	.string	""
	.string	""
	.string	"init_thread_data"
	.string	""
	.string	""
	.string	""
	.string	""
	.string	""
	.string	""
	.string	""
	.string	""
	.string	""
	.string	""
	.string	""
	.string	"\002\001"
	.string	""
	.string	"main"
	.string	""
	.string	""
	.string	""
	.string	""
	.string	""
	.string	""
	.string	""
	.string	""
	.string	""
	.string	""
	.string	""
	.string	"\n\001"
	.string	""
	.string	"clock_gettime"
	.string	""
	.string	"\002"
	.string	""
	.string	""
	.string	""
	.string	""
	.string	""
	.string	""
	.string	""
	.string	""
	.string	"!\001"
	.string	""
	.string	"rand"
	.string	""
	.string	"\002"
	.string	""
	.string	""
	.string	""
	.string	""
	.string	""
	.string	""
	.string	""
	.string	""
	.string	"[\001"
	.string	""
	.string	"srand"
	.string	""
	.string	"\002"
	.string	""
	.string	""
	.string	""
	.string	""
	.string	""
	.string	""
	.string	""
	.string	""
	.string	"`\001"
	.string	""
	.string	"time"
	.string	""
	.string	"\002"
	.string	""
	.string	""
	.string	""
	.string	""
	.string	""
	.string	""
	.string	""
	.string	""
	.string	"f\001"
	.string	""
	.string	"pthread_join"
	.string	""
	.string	"\002"
	.string	""
	.string	""
	.string	""
	.string	""
	.string	""
	.string	""
	.string	""
	.string	""
	.string	"l\001"
	.string	""
	.string	"pthread_create"
	.string	""
	.string	"\002"
	.string	""
	.string	""
	.string	""
	.string	""
	.string	""
	.string	""
	.string	""
	.string	""
	.string	"t\001"
	.string	""
	.string	"strtol"
	.string	""
	.string	"\002"
	.string	""
	.string	""
	.string	""
	.string	""
	.string	""
	.string	""
	.string	""
	.string	""
	.string	"\227\001"
	.string	""
	.text
	.section	.gnu.lto_.opts,"",@progbits
	.string	"'-mtune=generic' '-march=x86-64' '-O2' '-flto'"
	.text
	.section	.rodata.str1.1,"aMS",@progbits,1
.LC0:
	.string	"thread %d total op %ld\n"
	.text
	.p2align 4,,15
	.globl	read_write_op
	.type	read_write_op, @function
read_write_op:
.LFB546:
	.cfi_startproc
	pushq	%r15
	.cfi_def_cfa_offset 16
	.cfi_offset 15, -16
	pushq	%r14
	.cfi_def_cfa_offset 24
	.cfi_offset 14, -24
	pushq	%r13
	.cfi_def_cfa_offset 32
	.cfi_offset 13, -32
	pushq	%r12
	.cfi_def_cfa_offset 40
	.cfi_offset 12, -40
	pushq	%rbp
	.cfi_def_cfa_offset 48
	.cfi_offset 6, -48
	pushq	%rbx
	.cfi_def_cfa_offset 56
	.cfi_offset 3, -56
	movq	%rdi, %rbx
	subq	$56, %rsp
	.cfi_def_cfa_offset 112
	leaq	32(%rsp), %rsi
	movq	%rdi, 24(%rsp)
	xorl	%edi, %edi
	call	clock_gettime
	movq	32(%rsp), %rax
	leaq	20(%rax), %r13
	movslq	%ebx, %rax
	xorl	%ebx, %ebx
	leaq	(%rax,%rax,2), %rdx
	movq	%rax, 16(%rsp)
	movq	thread_data(%rip), %rax
	leaq	(%rax,%rdx,4), %rax
	movq	target_mem_ptr(%rip), %rdx
	movslq	(%rax), %r15
	movslq	4(%rax), %rbp
	movslq	8(%rax), %rax
	imulq	%r15, %rbp
	addq	$1, %rax
	imulq	%r15, %rax
	movq	%rbp, %r12
	addq	source_mem_ptr(%rip), %r12
	leaq	(%rdx,%rbp), %r14
	leaq	-1(%rdx,%rax), %rax
	movq	%rax, 8(%rsp)
	.p2align 4,,10
	.p2align 3
.L5:
	movq	%r12, %rsi
	movq	%r14, %rdi
	movq	%r15, %rdx
	call	memcpy
	leaq	32(%rsp), %rsi
	xorl	%edi, %edi
	addq	%r15, %r14
	addq	%r15, %r12
	call	clock_gettime
	cmpq	%r14, 8(%rsp)
	ja	.L3
	movq	%rbp, %r14
	movq	%rbp, %r12
	addq	target_mem_ptr(%rip), %r14
	addq	source_mem_ptr(%rip), %r12
.L3:
	addq	$1, %rbx
	cmpq	32(%rsp), %r13
	jg	.L5
	movq	thread_op_array(%rip), %rax
	movq	16(%rsp), %rcx
	movl	%ebx, %edx
	movl	24(%rsp), %esi
	movl	$.LC0, %edi
	movl	%ebx, (%rax,%rcx,4)
	xorl	%eax, %eax
	call	printf
	addq	$56, %rsp
	.cfi_def_cfa_offset 56
	popq	%rbx
	.cfi_def_cfa_offset 48
	popq	%rbp
	.cfi_def_cfa_offset 40
	popq	%r12
	.cfi_def_cfa_offset 32
	popq	%r13
	.cfi_def_cfa_offset 24
	popq	%r14
	.cfi_def_cfa_offset 16
	popq	%r15
	.cfi_def_cfa_offset 8
	ret
	.cfi_endproc
.LFE546:
	.size	read_write_op, .-read_write_op
	.p2align 4,,15
	.globl	seq_write_op
	.type	seq_write_op, @function
seq_write_op:
.LFB547:
	.cfi_startproc
	pushq	%r15
	.cfi_def_cfa_offset 16
	.cfi_offset 15, -16
	pushq	%r14
	.cfi_def_cfa_offset 24
	.cfi_offset 14, -24
	pushq	%r13
	.cfi_def_cfa_offset 32
	.cfi_offset 13, -32
	pushq	%r12
	.cfi_def_cfa_offset 40
	.cfi_offset 12, -40
	pushq	%rbp
	.cfi_def_cfa_offset 48
	.cfi_offset 6, -48
	xorl	%ebp, %ebp
	pushq	%rbx
	.cfi_def_cfa_offset 56
	.cfi_offset 3, -56
	movq	%rdi, %rbx
	subq	$40, %rsp
	.cfi_def_cfa_offset 96
	leaq	16(%rsp), %rsi
	movq	%rdi, 8(%rsp)
	xorl	%edi, %edi
	call	clock_gettime
	movq	16(%rsp), %rax
	leaq	20(%rax), %r14
	movslq	%ebx, %rax
	leaq	(%rax,%rax,2), %rdx
	movq	%rax, (%rsp)
	movq	thread_data(%rip), %rax
	leaq	(%rax,%rdx,4), %rax
	movq	target_mem_ptr(%rip), %rdx
	movslq	(%rax), %rbx
	movslq	4(%rax), %r13
	movslq	8(%rax), %rax
	imulq	%rbx, %r13
	addq	$1, %rax
	imulq	%rbx, %rax
	leaq	(%rdx,%r13), %r15
	leaq	-1(%rdx,%rax), %r12
	.p2align 4,,10
	.p2align 3
.L11:
	movq	%r15, %rdi
	movq	%rbx, %rdx
	movl	$36, %esi
	call	memset
	leaq	16(%rsp), %rsi
	xorl	%edi, %edi
	addq	%rbx, %r15
	call	clock_gettime
	movq	%r13, %rax
	addq	target_mem_ptr(%rip), %rax
	cmpq	%r15, %r12
	cmovbe	%rax, %r15
	addq	$1, %rbp
	cmpq	16(%rsp), %r14
	jg	.L11
	movq	thread_op_array(%rip), %rax
	movq	(%rsp), %rcx
	movl	%ebp, %edx
	movl	8(%rsp), %esi
	movl	$.LC0, %edi
	movl	%ebp, (%rax,%rcx,4)
	xorl	%eax, %eax
	call	printf
	addq	$40, %rsp
	.cfi_def_cfa_offset 56
	popq	%rbx
	.cfi_def_cfa_offset 48
	popq	%rbp
	.cfi_def_cfa_offset 40
	popq	%r12
	.cfi_def_cfa_offset 32
	popq	%r13
	.cfi_def_cfa_offset 24
	popq	%r14
	.cfi_def_cfa_offset 16
	popq	%r15
	.cfi_def_cfa_offset 8
	ret
	.cfi_endproc
.LFE547:
	.size	seq_write_op, .-seq_write_op
	.p2align 4,,15
	.globl	rand_write_op
	.type	rand_write_op, @function
rand_write_op:
.LFB548:
	.cfi_startproc
	pushq	%r15
	.cfi_def_cfa_offset 16
	.cfi_offset 15, -16
	pushq	%r14
	.cfi_def_cfa_offset 24
	.cfi_offset 14, -24
	pushq	%r13
	.cfi_def_cfa_offset 32
	.cfi_offset 13, -32
	pushq	%r12
	.cfi_def_cfa_offset 40
	.cfi_offset 12, -40
	pushq	%rbp
	.cfi_def_cfa_offset 48
	.cfi_offset 6, -48
	xorl	%ebp, %ebp
	pushq	%rbx
	.cfi_def_cfa_offset 56
	.cfi_offset 3, -56
	movq	%rdi, %rbx
	subq	$56, %rsp
	.cfi_def_cfa_offset 112
	movq	%rdi, 24(%rsp)
	xorl	%edi, %edi
	call	time
	movl	%eax, %edi
	call	srand
	leaq	32(%rsp), %rsi
	xorl	%edi, %edi
	call	clock_gettime
	movq	32(%rsp), %rax
	leaq	20(%rax), %r15
	movslq	%ebx, %rax
	leaq	(%rax,%rax,2), %rdx
	movq	%rax, 16(%rsp)
	movq	thread_data(%rip), %rax
	leaq	(%rax,%rdx,4), %rax
	movq	target_mem_ptr(%rip), %rdx
	movslq	(%rax), %rbx
	movslq	4(%rax), %r14
	movslq	8(%rax), %rax
	movl	%eax, %r13d
	addq	$1, %rax
	subl	%r14d, %r13d
	imulq	%rbx, %rax
	movslq	%r13d, %rcx
	imulq	%rbx, %r14
	movq	%rcx, 8(%rsp)
	leaq	-1(%rdx,%rax), %r12
	leaq	(%rdx,%r14), %r13
	.p2align 4,,10
	.p2align 3
.L16:
	movq	%rbx, %rdx
	movq	%r13, %rdi
	movl	$36, %esi
	call	memset
	leaq	32(%rsp), %rsi
	xorl	%edi, %edi
	call	clock_gettime
	call	rand
	cltq
	cqto
	idivq	8(%rsp)
	movq	%r14, %rax
	addq	target_mem_ptr(%rip), %rax
	imulq	%rbx, %rdx
	addq	%rdx, %r13
	cmpq	%r13, %r12
	cmovbe	%rax, %r13
	addq	$1, %rbp
	cmpq	32(%rsp), %r15
	jg	.L16
	movq	thread_op_array(%rip), %rax
	movq	16(%rsp), %rcx
	movl	%ebp, %edx
	movl	24(%rsp), %esi
	movl	$.LC0, %edi
	movl	%ebp, (%rax,%rcx,4)
	xorl	%eax, %eax
	call	printf
	addq	$56, %rsp
	.cfi_def_cfa_offset 56
	popq	%rbx
	.cfi_def_cfa_offset 48
	popq	%rbp
	.cfi_def_cfa_offset 40
	popq	%r12
	.cfi_def_cfa_offset 32
	popq	%r13
	.cfi_def_cfa_offset 24
	popq	%r14
	.cfi_def_cfa_offset 16
	popq	%r15
	.cfi_def_cfa_offset 8
	ret
	.cfi_endproc
.LFE548:
	.size	rand_write_op, .-rand_write_op
	.p2align 4,,15
	.globl	get_total_op
	.type	get_total_op, @function
get_total_op:
.LFB545:
	.cfi_startproc
	testl	%edi, %edi
	jle	.L21
	movq	thread_op_array(%rip), %rsi
	xorl	%edx, %edx
	xorl	%eax, %eax
	.p2align 4,,10
	.p2align 3
.L20:
	movslq	(%rsi,%rdx,4), %rcx
	addq	$1, %rdx
	addq	%rcx, %rax
	cmpl	%edx, %edi
	jg	.L20
	rep ret
.L21:
	xorl	%eax, %eax
	ret
	.cfi_endproc
.LFE545:
	.size	get_total_op, .-get_total_op
	.p2align 4,,15
	.globl	exec_threads
	.type	exec_threads, @function
exec_threads:
.LFB550:
	.cfi_startproc
	testl	%esi, %esi
	jle	.L30
	pushq	%r14
	.cfi_def_cfa_offset 16
	.cfi_offset 14, -16
	leal	-1(%rsi), %r14d
	pushq	%r13
	.cfi_def_cfa_offset 24
	.cfi_offset 13, -24
	leaq	1(%r14), %r13
	pushq	%r12
	.cfi_def_cfa_offset 32
	.cfi_offset 12, -32
	movq	%rdi, %r12
	pushq	%rbp
	.cfi_def_cfa_offset 40
	.cfi_offset 6, -40
	pushq	%rbx
	.cfi_def_cfa_offset 48
	.cfi_offset 3, -48
	xorl	%ebx, %ebx
	subq	$64, %rsp
	.cfi_def_cfa_offset 112
	movq	%rsp, %rbp
	.p2align 4,,10
	.p2align 3
.L25:
	movq	%rbx, %rcx
	xorl	%esi, %esi
	movq	%rbp, %rdi
	movq	%r12, %rdx
	addq	$1, %rbx
	addq	$8, %rbp
	call	pthread_create
	cmpq	%r13, %rbx
	jne	.L25
	leaq	8(%rsp,%r14,8), %rbp
	movq	%rsp, %rbx
	.p2align 4,,10
	.p2align 3
.L27:
	movq	(%rbx), %rdi
	xorl	%esi, %esi
	addq	$8, %rbx
	call	pthread_join
	cmpq	%rbp, %rbx
	jne	.L27
	addq	$64, %rsp
	.cfi_def_cfa_offset 48
	popq	%rbx
	.cfi_restore 3
	.cfi_def_cfa_offset 40
	popq	%rbp
	.cfi_restore 6
	.cfi_def_cfa_offset 32
	popq	%r12
	.cfi_restore 12
	.cfi_def_cfa_offset 24
	popq	%r13
	.cfi_restore 13
	.cfi_def_cfa_offset 16
	popq	%r14
	.cfi_restore 14
	.cfi_def_cfa_offset 8
.L30:
	rep ret
	.cfi_endproc
.LFE550:
	.size	exec_threads, .-exec_threads
	.section	.rodata.str1.1
.LC2:
	.string	"%lf\n"
.LC4:
	.string	"throughput %lf\n"
.LC6:
	.string	"latency %lf\n"
	.text
	.p2align 4,,15
	.globl	calculate_mem_perf
	.type	calculate_mem_perf, @function
calculate_mem_perf:
.LFB549:
	.cfi_startproc
	pushq	%r12
	.cfi_def_cfa_offset 16
	.cfi_offset 12, -16
	movq	%rdi, %r12
	xorl	%edi, %edi
	pushq	%rbp
	.cfi_def_cfa_offset 24
	.cfi_offset 6, -24
	movl	%edx, %ebp
	pushq	%rbx
	.cfi_def_cfa_offset 32
	.cfi_offset 3, -32
	movl	%esi, %ebx
	subq	$48, %rsp
	.cfi_def_cfa_offset 80
	leaq	16(%rsp), %rsi
	call	clock_gettime
	movl	%ebp, %edx
	movl	%ebx, %esi
	movq	%r12, %rdi
	call	exec_threads
	leaq	32(%rsp), %rsi
	xorl	%edi, %edi
	call	clock_gettime
	testl	%ebx, %ebx
	jle	.L35
	movq	thread_op_array(%rip), %rsi
	xorl	%eax, %eax
	xorl	%ecx, %ecx
	.p2align 4,,10
	.p2align 3
.L34:
	movslq	(%rsi,%rax,4), %rdi
	addq	$1, %rax
	addq	%rdi, %rcx
	cmpl	%eax, %ebx
	jg	.L34
	cvtsi2sdq	%rcx, %xmm2
	movsd	%xmm2, (%rsp)
.L32:
	movsd	(%rsp), %xmm0
	movl	$.LC2, %edi
	movl	$1, %eax
	call	printf
	cvtsi2sdq	32(%rsp), %xmm0
	movq	24(%rsp), %rcx
	movabsq	$4835703278458516699, %rdx
	movl	$.LC4, %edi
	movq	%rcx, %rax
	imulq	%rdx
	movq	%rcx, %rax
	sarq	$63, %rax
	sarq	$18, %rdx
	subq	%rdx, %rax
	addq	40(%rsp), %rax
	cvtsi2sdq	%rax, %xmm1
	movl	$1, %eax
	addsd	%xmm0, %xmm1
	cvtsi2sdq	16(%rsp), %xmm0
	subsd	%xmm0, %xmm1
	cvtsi2sd	%ebp, %xmm0
	movsd	%xmm1, 8(%rsp)
	mulsd	(%rsp), %xmm0
	mulsd	.LC3(%rip), %xmm0
	divsd	%xmm1, %xmm0
	call	printf
	movsd	8(%rsp), %xmm1
	movl	$.LC6, %edi
	movsd	.LC5(%rip), %xmm0
	movl	$1, %eax
	divsd	(%rsp), %xmm1
	mulsd	%xmm1, %xmm0
	call	printf
	addq	$48, %rsp
	.cfi_remember_state
	.cfi_def_cfa_offset 32
	popq	%rbx
	.cfi_def_cfa_offset 24
	popq	%rbp
	.cfi_def_cfa_offset 16
	popq	%r12
	.cfi_def_cfa_offset 8
	ret
.L35:
	.cfi_restore_state
	xorpd	%xmm3, %xmm3
	movsd	%xmm3, (%rsp)
	jmp	.L32
	.cfi_endproc
.LFE549:
	.size	calculate_mem_perf, .-calculate_mem_perf
	.p2align 4,,15
	.globl	release_thread_data
	.type	release_thread_data, @function
release_thread_data:
.LFB551:
	.cfi_startproc
	subq	$8, %rsp
	.cfi_def_cfa_offset 16
	movq	target_mem_ptr(%rip), %rdi
	call	free
	movq	source_mem_ptr(%rip), %rdi
	call	free
	movq	thread_data(%rip), %rdi
	call	free
	movq	thread_op_array(%rip), %rdi
	addq	$8, %rsp
	.cfi_def_cfa_offset 8
	jmp	free
	.cfi_endproc
.LFE551:
	.size	release_thread_data, .-release_thread_data
	.p2align 4,,15
	.globl	init_thread_data
	.type	init_thread_data, @function
init_thread_data:
.LFB552:
	.cfi_startproc
	pushq	%r12
	.cfi_def_cfa_offset 16
	.cfi_offset 12, -16
	pushq	%rbp
	.cfi_def_cfa_offset 24
	.cfi_offset 6, -24
	movl	%edi, %ebp
	movl	$1000000000, %edi
	movslq	%ebp, %r12
	pushq	%rbx
	.cfi_def_cfa_offset 32
	.cfi_offset 3, -32
	movl	%esi, %ebx
	call	malloc
	movl	$1000000000, %edi
	movq	%rax, target_mem_ptr(%rip)
	call	malloc
	leaq	(%r12,%r12,2), %rdi
	movq	%rax, source_mem_ptr(%rip)
	salq	$2, %rdi
	call	malloc
	movq	%rax, %rcx
	movq	%rax, thread_data(%rip)
	movl	$1000000000, %eax
	cltd
	idivl	%ebx
	testl	%ebp, %ebp
	jle	.L41
	cltd
	xorl	%r8d, %r8d
	idivl	%ebp
	leal	-1(%rbp), %edx
	leaq	(%rdx,%rdx,2), %rdx
	leaq	12(%rcx,%rdx,4), %rsi
	leal	-1(%rax), %edx
	.p2align 4,,10
	.p2align 3
.L42:
	leal	(%rdx,%r8), %r9d
	movl	%r8d, 4(%rcx)
	movl	%ebx, (%rcx)
	addq	$12, %rcx
	addl	%eax, %r8d
	movl	%r9d, -4(%rcx)
	cmpq	%rsi, %rcx
	jne	.L42
.L41:
	movq	%r12, %rdi
	movl	$4, %esi
	call	calloc
	popq	%rbx
	.cfi_def_cfa_offset 24
	popq	%rbp
	.cfi_def_cfa_offset 16
	movq	%rax, thread_op_array(%rip)
	popq	%r12
	.cfi_def_cfa_offset 8
	ret
	.cfi_endproc
.LFE552:
	.size	init_thread_data, .-init_thread_data
	.section	.text.startup,"ax",@progbits
	.p2align 4,,15
	.globl	main
	.type	main, @function
main:
.LFB553:
	.cfi_startproc
	pushq	%r12
	.cfi_def_cfa_offset 16
	.cfi_offset 12, -16
	movl	$10, %edx
	pushq	%rbp
	.cfi_def_cfa_offset 24
	.cfi_offset 6, -24
	pushq	%rbx
	.cfi_def_cfa_offset 32
	.cfi_offset 3, -32
	movq	16(%rsi), %rdi
	movq	%rsi, %rbx
	xorl	%esi, %esi
	call	strtol
	movq	8(%rbx), %rdi
	xorl	%esi, %esi
	movl	$10, %edx
	movq	%rax, %rbp
	call	strtol
	movq	24(%rbx), %rdi
	movl	$10, %edx
	xorl	%esi, %esi
	movq	%rax, %r12
	call	strtol
	movl	%ebp, %edi
	movl	%eax, %esi
	movq	%rax, %rbx
	call	init_thread_data
	cmpl	$1, %r12d
	movl	%ebx, %edx
	movl	%ebp, %esi
	je	.L50
	cmpl	$2, %r12d
	je	.L51
	movl	$rand_write_op, %edi
	call	calculate_mem_perf
.L47:
	xorl	%eax, %eax
	call	release_thread_data
	popq	%rbx
	.cfi_remember_state
	.cfi_def_cfa_offset 24
	popq	%rbp
	.cfi_def_cfa_offset 16
	xorl	%eax, %eax
	popq	%r12
	.cfi_def_cfa_offset 8
	ret
.L51:
	.cfi_restore_state
	movl	$seq_write_op, %edi
	call	calculate_mem_perf
	jmp	.L47
.L50:
	movl	$read_write_op, %edi
	call	calculate_mem_perf
	.p2align 4,,3
	jmp	.L47
	.cfi_endproc
.LFE553:
	.size	main, .-main
	.comm	thread_data,8,8
	.comm	source_mem_ptr,8,8
	.comm	target_mem_ptr,8,8
	.comm	thread_op_array,8,8
	.section	.rodata.cst8,"aM",@progbits,8
	.align 8
.LC3:
	.long	0
	.long	1051721728
	.align 8
.LC5:
	.long	0
	.long	1093567616
	.comm	__gnu_lto_v1,1,1
	.ident	"GCC: (GNU) 4.8.5 20150623 (Red Hat 4.8.5-11)"
	.section	.note.GNU-stack,"",@progbits
